
Screwdriver Badge.elf:     file format elf32-avr

Sections:
Idx Name          Size      VMA       LMA       File off  Algn
  0 .text         00001f2c  00000000  00000000  00000094  2**1
                  CONTENTS, ALLOC, LOAD, READONLY, CODE
  1 .data         0000000a  00800060  00001f2c  00001fc0  2**0
                  CONTENTS, ALLOC, LOAD, DATA
  2 .bss          00000045  0080006a  0080006a  00001fca  2**0
                  ALLOC
  3 .comment      00000030  00000000  00000000  00001fca  2**0
                  CONTENTS, READONLY
  4 .note.gnu.avr.deviceinfo 0000003c  00000000  00000000  00001ffc  2**2
                  CONTENTS, READONLY
  5 .debug_aranges 000000a0  00000000  00000000  00002038  2**3
                  CONTENTS, READONLY, DEBUGGING
  6 .debug_info   000011f3  00000000  00000000  000020d8  2**0
                  CONTENTS, READONLY, DEBUGGING
  7 .debug_abbrev 0000066e  00000000  00000000  000032cb  2**0
                  CONTENTS, READONLY, DEBUGGING
  8 .debug_line   00000bf0  00000000  00000000  00003939  2**0
                  CONTENTS, READONLY, DEBUGGING
  9 .debug_frame  000000d8  00000000  00000000  0000452c  2**2
                  CONTENTS, READONLY, DEBUGGING
 10 .debug_str    0000083c  00000000  00000000  00004604  2**0
                  CONTENTS, READONLY, DEBUGGING
 11 .debug_loc    000002f1  00000000  00000000  00004e40  2**0
                  CONTENTS, READONLY, DEBUGGING
 12 .debug_ranges 00000050  00000000  00000000  00005131  2**0
                  CONTENTS, READONLY, DEBUGGING

Disassembly of section .text:

00000000 <__vectors>:
       0:	a4 c9       	rjmp	.-3256   	; 0xfffff34a <__eeprom_end+0xff7ef34a>
       2:	be c9       	rjmp	.-3204   	; 0xfffff380 <__eeprom_end+0xff7ef380>
       4:	bd c9       	rjmp	.-3206   	; 0xfffff380 <__eeprom_end+0xff7ef380>
       6:	bc c9       	rjmp	.-3208   	; 0xfffff380 <__eeprom_end+0xff7ef380>
       8:	bb c9       	rjmp	.-3210   	; 0xfffff380 <__eeprom_end+0xff7ef380>
       a:	ba c9       	rjmp	.-3212   	; 0xfffff380 <__eeprom_end+0xff7ef380>
       c:	80 ce       	rjmp	.-768    	; 0xfffffd0e <__eeprom_end+0xff7efd0e>
       e:	b8 c9       	rjmp	.-3216   	; 0xfffff380 <__eeprom_end+0xff7ef380>
      10:	b7 c9       	rjmp	.-3218   	; 0xfffff380 <__eeprom_end+0xff7ef380>
      12:	b6 c9       	rjmp	.-3220   	; 0xfffff380 <__eeprom_end+0xff7ef380>
      14:	b5 c9       	rjmp	.-3222   	; 0xfffff380 <__eeprom_end+0xff7ef380>
      16:	b4 c9       	rjmp	.-3224   	; 0xfffff380 <__eeprom_end+0xff7ef380>
      18:	b3 c9       	rjmp	.-3226   	; 0xfffff380 <__eeprom_end+0xff7ef380>
      1a:	b2 c9       	rjmp	.-3228   	; 0xfffff380 <__eeprom_end+0xff7ef380>
      1c:	b1 c9       	rjmp	.-3230   	; 0xfffff380 <__eeprom_end+0xff7ef380>
      1e:	b0 c9       	rjmp	.-3232   	; 0xfffff380 <__eeprom_end+0xff7ef380>
      20:	af c9       	rjmp	.-3234   	; 0xfffff380 <__eeprom_end+0xff7ef380>

00000022 <__trampolines_end>:
      22:	e1 12       	cpse	r14, r17
      24:	10 12       	cpse	r1, r16
      26:	7f 10       	cpse	r7, r15
      28:	7e 0f       	add	r23, r30
      2a:	e5 0e       	add	r14, r21
      2c:	84 0e       	add	r8, r20
      2e:	73 0d       	add	r23, r3
      30:	ea 0c       	add	r14, r10
      32:	d9 0b       	sbc	r29, r25
      34:	40 0b       	sbc	r20, r16
      36:	6f 0a       	sbc	r6, r31
      38:	d6 09       	sbc	r29, r6
      3a:	05 09       	sbc	r16, r5
      3c:	44 08       	sbc	r4, r4
      3e:	ab 07       	cpc	r26, r27
      40:	12 07       	cpc	r17, r18
      42:	89 06       	cpc	r8, r25
      44:	f0 05       	cpc	r31, r0
      46:	5f 04       	cpc	r5, r15
      48:	ce 02       	muls	r28, r30
      4a:	35 02       	muls	r19, r21
      4c:	9c 01       	movw	r18, r24
      4e:	03 01       	movw	r0, r6
      50:	52 00       	.word	0x0052	; ????

00000052 <admiralCode>:
      52:	64 28 00 93 01 28 00 93 01 28 00 29 00 28 00 46     d(...(...(.).(.F
      62:	01 28 00 29 00 28 00 46 01 28 00 93 01 28 00 29     .(.).(.F.(...(.)
      72:	00 28 00 46 01 28 00 93 01 28 00 29 00 28 00 46     .(.F.(...(.).(.F
      82:	01 28 00 93 01 28 00 93 01 28 00 29 00 28 00 46     .(...(...(.).(.F
      92:	01 28 00 29 00 28 00 46 01 28 00 93 01 28 00 29     .(.).(.F.(...(.)
      a2:	00 28 00 46 01 28 00 c0 20 28 00 93 01 28 00 93     .(.F.(.. (...(..
      b2:	01 28 00 29 00 28 00 46 01 28 00 29 00 28 00 46     .(.).(.F.(.).(.F
      c2:	01 28 00 93 01 28 00 29 00 28 00 46 01 28 00 93     .(...(.).(.F.(..
      d2:	01 28 00 29 00 28 00 46 01 28 00 93 01 28 00 93     .(.).(.F.(...(..
      e2:	01 28 00 29 00 28 00 46 01 28 00 29 00 28 00 46     .(.).(.F.(.).(.F
      f2:	01 28 00 93 01 28 00 29 00 28 00 46 01 28 00 00     .(...(.).(.F.(..
	...

00000103 <NECCode>:
     103:	68 b0 02 59 01 2a 00 2e 00 2a 00 2e 00 2a 00 2e     h..Y.*...*...*..
     113:	00 2a 00 86 00 2a 00 86 00 2a 00 2e 00 2a 00 2e     .*...*...*...*..
     123:	00 2a 00 2e 00 2a 00 2e 00 2a 00 2e 00 2a 00 2e     .*...*...*...*..
     133:	00 2a 00 86 00 2a 00 86 00 2a 00 2e 00 2a 00 2e     .*...*...*...*..
     143:	00 2a 00 2e 00 2a 00 2e 00 2a 00 2e 00 2a 00 2e     .*...*...*...*..
     153:	00 2a 00 2e 00 2a 00 2e 00 2a 00 2e 00 2a 00 86     .*...*...*...*..
     163:	00 2a 00 86 00 2a 00 86 00 2a 00 86 00 2a 00 86     .*...*...*...*..
     173:	00 2a 00 86 00 2a 00 86 00 2a 00 86 00 2a 00 2e     .*...*...*...*..
     183:	00 2a 00 2e 00 2a 00 69 0d b2 02 ac 00 2a 00 69     .*...*.i.....*.i
     193:	1c b2 02 ac 00 2a 00 00 00                          .....*...

0000019c <daewooCode>:
     19c:	68 67 02 33 01 26 00 27 00 26 00 27 00 26 00 7a     hg.3.&.'.&.'.&.z
     1ac:	00 26 00 27 00 26 00 7a 00 26 00 27 00 26 00 27     .&.'.&.z.&.'.&.'
     1bc:	00 26 00 27 00 26 00 33 01 26 00 7a 00 26 00 27     .&.'.&.3.&.z.&.'
     1cc:	00 26 00 7a 00 26 00 27 00 26 00 7a 00 26 00 27     .&.z.&.'.&.z.&.'
     1dc:	00 26 00 27 00 26 00 27 00 26 00 04 07 68 02 33     .&.'.&.'.&...h.3
     1ec:	01 26 00 27 00 26 00 27 00 26 00 7a 00 26 00 27     .&.'.&.'.&.z.&.'
     1fc:	00 26 00 7a 00 26 00 27 00 26 00 27 00 26 00 27     .&.z.&.'.&.'.&.'
     20c:	00 26 00 33 01 26 00 7a 00 26 00 27 00 26 00 7a     .&.3.&.z.&.'.&.z
     21c:	00 26 00 27 00 26 00 7a 00 26 00 27 00 26 00 27     .&.'.&.z.&.'.&.'
     22c:	00 26 00 27 00 26 00 00 00                          .&.'.&...

00000235 <goldstarCode>:
     235:	68 b4 02 62 01 2f 00 29 00 2f 00 29 00 2f 00 7c     h..b./.)./.)./.|
     245:	00 2f 00 29 00 2f 00 29 00 2f 00 29 00 2f 00 29     ./.)./.)./.)./.)
     255:	00 2f 00 29 00 2f 00 7c 00 2f 00 7c 00 2f 00 29     ./.)./.|./.|./.)
     265:	00 2f 00 7c 00 2f 00 7c 00 2f 00 7c 00 2f 00 7c     ./.|./.|./.|./.|
     275:	00 2f 00 7c 00 2f 00 29 00 2f 00 29 00 2f 00 29     ./.|./.)./.)./.)
     285:	00 2f 00 7c 00 2f 00 29 00 2f 00 29 00 2f 00 29     ./.|./.)./.)./.)
     295:	00 2f 00 29 00 2f 00 7c 00 2f 00 7c 00 2f 00 7c     ./.)./.|./.|./.|
     2a5:	00 2f 00 29 00 2f 00 7c 00 2f 00 7c 00 2f 00 7c     ./.)./.|./.|./.|
     2b5:	00 2f 00 7c 00 2f 00 51 0c b6 02 af 00 2f 00 26     ./.|./.Q...../.&
     2c5:	1d b6 02 af 00 3e 00 00 00                          .....>...

000002ce <fujitsuCode>:
     2ce:	68 fb 00 7c 00 20 00 1f 00 20 00 1f 00 20 00 5e     h..|. ... ... .^
     2de:	00 20 00 1f 00 20 00 5e 00 20 00 1f 00 20 00 1f     . ... .^. ... ..
     2ee:	00 20 00 1f 00 20 00 5e 00 20 00 5e 00 20 00 1f     . ... .^. .^. ..
     2fe:	00 20 00 1f 00 20 00 1f 00 20 00 5e 00 20 00 5e     . ... ... .^. .^
     30e:	00 20 00 1f 00 20 00 1f 00 20 00 1f 00 20 00 1f     . ... ... ... ..
     31e:	00 20 00 1f 00 20 00 1f 00 20 00 1f 00 20 00 1f     . ... ... ... ..
     32e:	00 20 00 1f 00 20 00 1f 00 20 00 1f 00 20 00 5e     . ... ... ... .^
     33e:	00 20 00 1f 00 20 00 1f 00 20 00 1f 00 20 00 1f     . ... ... ... ..
     34e:	00 20 00 5e 00 20 00 1f 00 20 00 1f 00 20 00 5e     . .^. ... ... .^
     35e:	00 20 00 1f 00 20 00 1f 00 20 00 1f 00 20 00 1f     . ... ... ... ..
     36e:	00 20 00 5e 00 20 00 1f 00 20 00 5e 00 20 00 1f     . .^. ... .^. ..
     37e:	00 20 00 1f 00 20 00 1f 00 20 00 1f 00 20 00 1f     . ... ... ... ..
     38e:	00 20 00 1f 00 20 00 d3 0d fc 00 7c 00 20 00 1f     . ... .....|. ..
     39e:	00 20 00 1f 00 20 00 5e 00 20 00 1f 00 20 00 5e     . ... .^. ... .^
     3ae:	00 20 00 1f 00 20 00 1f 00 20 00 1f 00 20 00 5e     . ... ... ... .^
     3be:	00 20 00 5e 00 20 00 1f 00 20 00 1f 00 20 00 1f     . .^. ... ... ..
     3ce:	00 20 00 5e 00 20 00 5e 00 20 00 1f 00 20 00 1f     . .^. .^. ... ..
     3de:	00 20 00 1f 00 20 00 1f 00 20 00 1f 00 20 00 1f     . ... ... ... ..
     3ee:	00 20 00 1f 00 20 00 1f 00 20 00 1f 00 20 00 1f     . ... ... ... ..
     3fe:	00 20 00 1f 00 20 00 5e 00 20 00 1f 00 20 00 1f     . ... .^. ... ..
     40e:	00 20 00 1f 00 20 00 1f 00 20 00 5e 00 20 00 1f     . ... ... .^. ..
     41e:	00 20 00 1f 00 20 00 5e 00 20 00 1f 00 20 00 1f     . ... .^. ... ..
     42e:	00 20 00 1f 00 20 00 1f 00 20 00 5e 00 20 00 1f     . ... ... .^. ..
     43e:	00 20 00 5e 00 20 00 1f 00 20 00 1f 00 20 00 1f     . .^. ... ... ..
     44e:	00 20 00 1f 00 20 00 1f 00 20 00 1f 00 20 00 00     . ... ... ... ..
	...

0000045f <pioneer2Code>:
     45f:	68 8e 02 49 01 28 00 29 00 28 00 7b 00 28 00 29     h..I.(.).(.{.(.)
     46f:	00 28 00 7b 00 28 00 29 00 28 00 7b 00 28 00 29     .(.{.(.).(.{.(.)
     47f:	00 28 00 7b 00 28 00 7b 00 28 00 29 00 28 00 7b     .(.{.(.{.(.).(.{
     48f:	00 28 00 29 00 28 00 7b 00 28 00 29 00 28 00 7b     .(.).(.{.(.).(.{
     49f:	00 28 00 29 00 28 00 29 00 28 00 29 00 28 00 7b     .(.).(.).(.).(.{
     4af:	00 28 00 7b 00 28 00 7b 00 28 00 29 00 28 00 29     .(.{.(.{.(.).(.)
     4bf:	00 28 00 29 00 28 00 7b 00 28 00 7b 00 28 00 29     .(.).(.{.(.{.(.)
     4cf:	00 28 00 29 00 28 00 29 00 28 00 7b 00 28 00 7b     .(.).(.).(.{.(.{
     4df:	00 28 00 7b 00 28 00 b5 07 8e 02 4a 01 28 00 29     .(.{.(.....J.(.)
     4ef:	00 28 00 7b 00 28 00 29 00 28 00 7b 00 28 00 29     .(.{.(.).(.{.(.)
     4ff:	00 28 00 7b 00 28 00 29 00 28 00 7b 00 28 00 7b     .(.{.(.).(.{.(.{
     50f:	00 28 00 29 00 28 00 7b 00 28 00 29 00 28 00 7b     .(.).(.{.(.).(.{
     51f:	00 28 00 29 00 28 00 7b 00 28 00 29 00 28 00 29     .(.).(.{.(.).(.)
     52f:	00 28 00 29 00 28 00 7b 00 28 00 7b 00 28 00 7b     .(.).(.{.(.{.(.{
     53f:	00 28 00 29 00 28 00 29 00 28 00 29 00 28 00 7b     .(.).(.).(.).(.{
     54f:	00 28 00 7b 00 28 00 29 00 28 00 29 00 28 00 29     .(.{.(.).(.).(.)
     55f:	00 28 00 7b 00 28 00 7b 00 28 00 7b 00 28 00 b5     .(.{.(.{.(.{.(..
     56f:	07 8e 02 4a 01 28 00 29 00 28 00 7b 00 28 00 29     ...J.(.).(.{.(.)
     57f:	00 28 00 7b 00 28 00 29 00 28 00 7b 00 28 00 29     .(.{.(.).(.{.(.)
     58f:	00 28 00 7b 00 28 00 7b 00 28 00 29 00 28 00 7b     .(.{.(.{.(.).(.{
     59f:	00 28 00 29 00 28 00 7b 00 28 00 29 00 28 00 7b     .(.).(.{.(.).(.{
     5af:	00 28 00 29 00 28 00 29 00 28 00 29 00 28 00 7b     .(.).(.).(.).(.{
     5bf:	00 28 00 7b 00 28 00 7b 00 28 00 29 00 28 00 29     .(.{.(.{.(.).(.)
     5cf:	00 28 00 29 00 28 00 7b 00 28 00 7b 00 28 00 29     .(.).(.{.(.{.(.)
     5df:	00 28 00 29 00 28 00 29 00 28 00 7b 00 28 00 00     .(.).(.).(.{.(..
	...

000005f0 <bellCode>:
     5f0:	64 d0 02 66 01 2e 00 2c 00 2e 00 2c 00 2e 00 2c     d..f...,...,...,
     600:	00 2e 00 8b 00 2e 00 8b 00 2e 00 8b 00 2e 00 2c     ...............,
     610:	00 2e 00 2c 00 2e 00 8b 00 2e 00 8b 00 2e 00 8b     ...,............
     620:	00 2e 00 2c 00 2e 00 2c 00 2e 00 2c 00 2e 00 8b     ...,...,...,....
     630:	00 2e 00 8b 00 2e 00 2c 00 2e 00 8b 00 2e 00 2c     .......,.......,
     640:	00 2e 00 2c 00 2e 00 8b 00 2e 00 2c 00 2e 00 2c     ...,.......,...,
     650:	00 2e 00 2c 00 2e 00 8b 00 2e 00 2c 00 2e 00 8b     ...,.......,....
     660:	00 2e 00 8b 00 2e 00 2c 00 2e 00 8b 00 2e 00 8b     .......,........
     670:	00 2e 00 8b 00 2e 00 f8 0c d0 02 b4 00 2e 00 b1     ................
     680:	1d d0 02 b4 00 2e 00 00 00                          .........

00000689 <aocCode>:
     689:	74 14 00 90 00 14 00 91 00 14 00 91 00 14 00 3d     t..............=
     699:	00 14 00 3d 00 14 00 3d 00 14 00 91 00 14 00 3d     ...=...=.......=
     6a9:	00 14 00 3d 00 14 00 91 00 14 00 3d 00 14 00 3d     ...=.......=...=
     6b9:	00 14 00 3d 00 14 00 3d 00 14 00 3d 00 14 00 3d     ...=...=...=...=
     6c9:	00 14 00 c1 06 14 00 91 00 14 00 91 00 14 00 91     ................
     6d9:	00 14 00 3d 00 14 00 3d 00 14 00 3d 00 14 00 91     ...=...=...=....
     6e9:	00 14 00 3d 00 14 00 3d 00 14 00 91 00 14 00 3d     ...=...=.......=
     6f9:	00 14 00 3d 00 14 00 3d 00 14 00 3d 00 14 00 3d     ...=...=...=...=
     709:	00 14 00 3d 00 14 00 00 00                          ...=.....

00000712 <bushCode>:
     712:	68 b4 02 5c 01 2b 00 2b 00 2b 00 82 00 2b 00 2b     h..\.+.+.+...+.+
     722:	00 2b 00 2b 00 2b 00 2b 00 2b 00 2b 00 2b 00 82     .+.+.+.+.+.+.+..
     732:	00 2b 00 2b 00 2b 00 82 00 2b 00 2b 00 2b 00 82     .+.+.+...+.+.+..
     742:	00 2b 00 82 00 2b 00 82 00 2b 00 82 00 2b 00 2b     .+...+...+...+.+
     752:	00 2b 00 82 00 2b 00 82 00 2b 00 2b 00 2b 00 2b     .+...+...+.+.+.+
     762:	00 2b 00 2b 00 2b 00 2b 00 2b 00 2b 00 2b 00 2b     .+.+.+.+.+.+.+.+
     772:	00 2b 00 2b 00 2b 00 2b 00 2b 00 82 00 2b 00 82     .+.+.+.+.+...+..
     782:	00 2b 00 82 00 2b 00 82 00 2b 00 82 00 2b 00 82     .+...+...+...+..
     792:	00 2b 00 82 00 2b 00 de 0b b6 02 ac 00 2b 00 ec     .+...+.......+..
     7a2:	1c b6 02 ac 00 2b 00 00 00                          .....+...

000007ab <viewsonicCode>:
     7ab:	68 b4 02 5c 01 2b 00 2b 00 2b 00 2b 00 2b 00 2b     h..\.+.+.+.+.+.+
     7bb:	00 2b 00 2b 00 2b 00 2b 00 2b 00 82 00 2b 00 82     .+.+.+.+.+...+..
     7cb:	00 2b 00 2b 00 2b 00 82 00 2b 00 82 00 2b 00 82     .+.+.+...+...+..
     7db:	00 2b 00 82 00 2b 00 82 00 2b 00 2b 00 2b 00 2b     .+...+...+.+.+.+
     7eb:	00 2b 00 82 00 2b 00 82 00 2b 00 82 00 2b 00 2b     .+...+...+...+.+
     7fb:	00 2b 00 2b 00 2b 00 2b 00 2b 00 2b 00 2b 00 2b     .+.+.+.+.+.+.+.+
     80b:	00 2b 00 2b 00 2b 00 2b 00 2b 00 2b 00 2b 00 82     .+.+.+.+.+.+.+..
     81b:	00 2b 00 82 00 2b 00 82 00 2b 00 82 00 2b 00 82     .+...+...+...+..
     82b:	00 2b 00 82 00 2b 00 de 0b b6 02 ac 00 2b 00 ec     .+...+.......+..
     83b:	1c b6 02 ac 00 2b 00 00 00                          .....+...

00000844 <hisenseCode>:
     844:	68 b0 02 58 01 2a 00 29 00 2a 00 29 00 2a 00 7f     h..X.*.).*.).*..
     854:	00 2a 00 7f 00 2a 00 7f 00 2a 00 29 00 2a 00 29     .*...*...*.).*.)
     864:	00 2a 00 29 00 2a 00 7f 00 2a 00 29 00 2a 00 29     .*.).*...*.).*.)
     874:	00 2a 00 29 00 2a 00 29 00 2a 00 7f 00 2a 00 7f     .*.).*.).*...*..
     884:	00 2a 00 29 00 2a 00 29 00 2a 00 29 00 2a 00 7f     .*.).*.).*.).*..
     894:	00 2a 00 7f 00 2a 00 7f 00 2a 00 29 00 2a 00 7f     .*...*...*.).*..
     8a4:	00 2a 00 7f 00 2a 00 7f 00 2a 00 7f 00 2a 00 29     .*...*...*...*.)
     8b4:	00 2a 00 7f 00 2a 00 29 00 2a 00 29 00 2a 00 7f     .*...*.).*.).*..
     8c4:	00 2a 00 29 00 2a 00 29 00 2a 00 29 00 2a 00 7f     .*.).*.).*.).*..
     8d4:	00 2a 00 29 00 2a 00 7f 00 2a 00 7f 00 2a 00 29     .*.).*...*...*.)
     8e4:	00 2a 00 7f 00 2a 00 7f 00 2a 00 7f 00 2a 00 ec     .*...*...*...*..
     8f4:	06 b1 02 57 01 2a 00 29 1c b1 02 57 01 2a 00 00     ...W.*.)...W.*..
	...

00000905 <sampoCode>:
     905:	68 00 01 01 01 40 00 c3 00 40 00 41 00 40 00 c3     h....@...@.A.@..
     915:	00 40 00 c3 00 40 00 41 00 40 00 c3 00 40 00 41     .@...@.A.@...@.A
     925:	00 40 00 c3 00 40 00 c3 00 40 00 41 00 40 00 41     .@...@...@.A.@.A
     935:	00 40 00 41 00 40 00 41 00 40 00 c3 00 40 00 41     .@.A.@.A.@...@.A
     945:	00 40 00 c3 00 40 00 41 00 40 00 41 00 40 00 c3     .@...@.A.@.A.@..
     955:	00 40 00 41 00 40 00 41 00 40 00 c3 00 40 00 c3     .@.A.@.A.@...@..
     965:	00 40 00 c3 00 40 00 da 09 00 01 02 01 40 00 c3     .@...@.......@..
     975:	00 40 00 41 00 40 00 c3 00 40 00 c3 00 40 00 41     .@.A.@...@...@.A
     985:	00 40 00 c3 00 40 00 41 00 40 00 c3 00 40 00 c3     .@...@.A.@...@..
     995:	00 40 00 41 00 40 00 41 00 40 00 41 00 40 00 41     .@.A.@.A.@.A.@.A
     9a5:	00 40 00 c3 00 40 00 41 00 40 00 c3 00 40 00 41     .@...@.A.@...@.A
     9b5:	00 40 00 41 00 40 00 c3 00 40 00 41 00 40 00 41     .@.A.@...@.A.@.A
     9c5:	00 40 00 c3 00 40 00 c3 00 40 00 c3 00 40 00 00     .@...@...@...@..
	...

000009d6 <hitachiCode>:
     9d6:	68 a9 02 53 01 2b 00 29 00 2b 00 29 00 2b 00 29     h..S.+.).+.).+.)
     9e6:	00 2b 00 29 00 2b 00 83 00 2b 00 29 00 2b 00 83     .+.).+...+.).+..
     9f6:	00 2b 00 29 00 2b 00 83 00 2b 00 83 00 2b 00 83     .+.).+...+...+..
     a06:	00 2b 00 83 00 2b 00 29 00 2b 00 83 00 2b 00 29     .+...+.).+...+.)
     a16:	00 2b 00 83 00 2b 00 83 00 2b 00 83 00 2b 00 83     .+...+...+...+..
     a26:	00 2b 00 29 00 2b 00 83 00 2b 00 29 00 2b 00 29     .+.).+...+.).+.)
     a36:	00 2b 00 29 00 2b 00 29 00 2b 00 29 00 2b 00 29     .+.).+.).+.).+.)
     a46:	00 2b 00 83 00 2b 00 29 00 2b 00 83 00 2b 00 83     .+...+.).+...+..
     a56:	00 2b 00 83 00 2b 00 23 0c aa 02 ac 00 2b 00 18     .+...+.#.....+..
     a66:	1c aa 02 ac 00 2a 00 00 00                          .....*...

00000a6f <jvcCode>:
     a6f:	68 88 02 41 01 28 00 79 00 28 00 79 00 28 00 29     h..A.(.y.(.y.(.)
     a7f:	00 28 00 29 00 28 00 29 00 28 00 29 00 28 00 29     .(.).(.).(.).(.)
     a8f:	00 28 00 29 00 28 00 79 00 28 00 79 00 28 00 79     .(.).(.y.(.y.(.y
     a9f:	00 28 00 29 00 28 00 79 00 28 00 29 00 28 00 29     .(.).(.y.(.).(.)
     aaf:	00 28 00 29 00 28 00 df 06 28 00 79 00 28 00 79     .(.).(...(.y.(.y
     abf:	00 28 00 29 00 28 00 29 00 28 00 29 00 28 00 29     .(.).(.).(.).(.)
     acf:	00 28 00 29 00 28 00 29 00 28 00 79 00 28 00 79     .(.).(.).(.y.(.y
     adf:	00 28 00 79 00 28 00 29 00 28 00 79 00 28 00 29     .(.y.(.).(.y.(.)
     aef:	00 28 00 29 00 28 00 29 00 28 00 df 06 28 00 79     .(.).(.).(...(.y
     aff:	00 28 00 79 00 28 00 29 00 28 00 29 00 28 00 29     .(.y.(.).(.).(.)
     b0f:	00 28 00 29 00 28 00 29 00 28 00 29 00 28 00 79     .(.).(.).(.).(.y
     b1f:	00 28 00 79 00 28 00 79 00 28 00 29 00 28 00 79     .(.y.(.y.(.).(.y
     b2f:	00 28 00 29 00 28 00 29 00 28 00 29 00 28 00 00     .(.).(.).(.).(..
	...

00000b40 <sylvaniaCode>:
     b40:	68 b4 02 5a 01 2a 00 82 00 2a 00 82 00 2a 00 82     h..Z.*...*...*..
     b50:	00 2a 00 2a 00 2a 00 2a 00 2a 00 2a 00 2a 00 2a     .*.*.*.*.*.*.*.*
     b60:	00 2a 00 82 00 2a 00 2a 00 2a 00 82 00 2a 00 2a     .*...*.*.*...*.*
     b70:	00 2a 00 2a 00 2a 00 2a 00 2a 00 82 00 2a 00 2a     .*.*.*.*.*...*.*
     b80:	00 2a 00 2a 00 2a 00 2a 00 2a 00 2a 00 2a 00 2a     .*.*.*.*.*.*.*.*
     b90:	00 2a 00 2a 00 2a 00 2a 00 2a 00 82 00 2a 00 82     .*.*.*.*.*...*..
     ba0:	00 2a 00 82 00 2a 00 82 00 2a 00 82 00 2a 00 82     .*...*...*...*..
     bb0:	00 2a 00 82 00 2a 00 82 00 2a 00 2a 00 2a 00 2a     .*...*...*.*.*.*
     bc0:	00 2a 00 2a 00 2a 00 de 0b b6 02 ac 00 2a 00 d9     .*.*.*.......*..
     bd0:	1c b6 02 ac 00 2a 00 00 00                          .....*...

00000bd9 <pioneerCode>:
     bd9:	68 b4 02 5a 01 2c 00 82 00 2c 00 2c 00 2c 00 2c     h..Z.,...,.,.,.,
     be9:	00 2c 00 2c 00 2c 00 82 00 2c 00 82 00 2c 00 82     .,.,.,...,...,..
     bf9:	00 2c 00 2c 00 2c 00 2c 00 2c 00 82 00 2c 00 82     .,.,.,.,.,...,..
     c09:	00 2c 00 82 00 2c 00 2c 00 2c 00 2c 00 2c 00 2c     .,...,.,.,.,.,.,
     c19:	00 2c 00 82 00 2c 00 2c 00 2c 00 82 00 2c 00 2c     .,...,.,.,...,.,
     c29:	00 2c 00 82 00 2c 00 2c 00 2c 00 2c 00 2c 00 82     .,...,.,.,.,.,..
     c39:	00 2c 00 2c 00 2c 00 82 00 2c 00 2c 00 2c 00 82     .,.,.,...,.,.,..
     c49:	00 2c 00 2c 00 2c 00 82 00 2c 00 82 00 2c 00 2c     .,.,.,...,...,.,
     c59:	00 2c 00 82 00 2c 00 0d 0c b6 02 58 01 2c 00 82     .,...,.....X.,..
     c69:	00 2c 00 2c 00 2c 00 2c 00 2c 00 2c 00 2c 00 82     .,.,.,.,.,.,.,..
     c79:	00 2c 00 82 00 2c 00 82 00 2c 00 2c 00 2c 00 2c     .,...,...,.,.,.,
     c89:	00 2c 00 82 00 2c 00 82 00 2c 00 82 00 2c 00 2c     .,...,...,...,.,
     c99:	00 2c 00 2c 00 2c 00 2c 00 2c 00 82 00 2c 00 2c     .,.,.,.,.,...,.,
     ca9:	00 2c 00 82 00 2c 00 2c 00 2c 00 82 00 2c 00 2c     .,...,.,.,...,.,
     cb9:	00 2c 00 2c 00 2c 00 82 00 2c 00 2c 00 2c 00 82     .,.,.,...,.,.,..
     cc9:	00 2c 00 2c 00 2c 00 82 00 2c 00 2c 00 2c 00 82     .,.,.,...,.,.,..
     cd9:	00 2c 00 82 00 2c 00 2c 00 2c 00 82 00 2c 00 00     .,...,.,.,...,..
	...

00000cea <zenithCode>:
     cea:	66 28 00 25 00 28 00 40 01 28 00 8f 01 28 00 25     f(.%.(.@.(...(.%
     cfa:	00 28 00 40 01 28 00 25 00 28 00 40 01 28 00 8f     .(.@.(.%.(.@.(..
     d0a:	01 28 00 25 00 28 00 40 01 28 00 8f 01 28 00 25     .(.%.(.@.(...(.%
     d1a:	00 28 00 40 01 28 00 8f 01 28 00 8f 01 28 00 25     .(.@.(...(...(.%
     d2a:	00 28 00 1b 25 28 00 25 00 28 00 40 01 28 00 8f     .(..%(.%.(.@.(..
     d3a:	01 28 00 25 00 28 00 40 01 28 00 25 00 28 00 40     .(.%.(.@.(.%.(.@
     d4a:	01 28 00 8f 01 28 00 25 00 28 00 40 01 28 00 8f     .(...(.%.(.@.(..
     d5a:	01 28 00 25 00 28 00 40 01 28 00 8f 01 28 00 8f     .(.%.(.@.(...(..
     d6a:	01 28 00 25 00 28 00 00 00                          .(.%.(...

00000d73 <samsungCode>:
     d73:	68 5d 01 67 01 28 00 84 00 28 00 84 00 28 00 84     h].g.(...(...(..
     d83:	00 28 00 2f 00 28 00 2f 00 28 00 2f 00 28 00 2f     .(./.(./.(./.(./
     d93:	00 28 00 2f 00 28 00 84 00 28 00 84 00 28 00 84     .(./.(...(...(..
     da3:	00 28 00 2f 00 28 00 2f 00 28 00 2f 00 28 00 2f     .(./.(./.(./.(./
     db3:	00 28 00 2f 00 28 00 2f 00 28 00 84 00 28 00 2f     .(./.(./.(...(./
     dc3:	00 28 00 2f 00 28 00 2f 00 28 00 2f 00 28 00 2f     .(./.(./.(./.(./
     dd3:	00 28 00 2f 00 28 00 84 00 28 00 2f 00 28 00 84     .(./.(...(./.(..
     de3:	00 28 00 84 00 28 00 84 00 28 00 84 00 28 00 84     .(...(...(...(..
     df3:	00 28 00 84 00 28 00 bd 0d 5d 01 67 01 28 00 84     .(...(...].g.(..
     e03:	00 28 00 84 00 28 00 84 00 28 00 2f 00 28 00 2f     .(...(...(./.(./
     e13:	00 28 00 2f 00 28 00 2f 00 28 00 2f 00 28 00 84     .(./.(./.(./.(..
     e23:	00 28 00 84 00 28 00 84 00 28 00 2f 00 28 00 2f     .(...(...(./.(./
     e33:	00 28 00 2f 00 28 00 2f 00 28 00 2f 00 28 00 2f     .(./.(./.(./.(./
     e43:	00 28 00 84 00 28 00 2f 00 28 00 2f 00 28 00 2f     .(...(./.(./.(./
     e53:	00 28 00 2f 00 28 00 2f 00 28 00 2f 00 28 00 84     .(./.(./.(./.(..
     e63:	00 28 00 2f 00 28 00 84 00 28 00 84 00 28 00 84     .(./.(...(...(..
     e73:	00 28 00 84 00 28 00 84 00 28 00 84 00 28 00 00     .(...(...(...(..
	...

00000e84 <philipsCode>:
     e84:	70 40 00 40 00 80 00 40 00 40 00 40 00 40 00 40     p@.@...@.@.@.@.@
     e94:	00 40 00 40 00 40 00 40 00 40 00 40 00 40 00 40     .@.@.@.@.@.@.@.@
     ea4:	00 40 00 b8 00 40 00 40 00 80 00 40 00 40 00 0e     .@...@.@...@.@..
     eb4:	19 40 00 40 00 80 00 40 00 40 00 40 00 40 00 40     .@.@...@.@.@.@.@
     ec4:	00 40 00 40 00 40 00 40 00 40 00 40 00 40 00 40     .@.@.@.@.@.@.@.@
     ed4:	00 40 00 80 00 40 00 40 00 80 00 40 00 40 00 00     .@...@.@...@.@..
	...

00000ee5 <toshibaCode>:
     ee5:	68 b4 02 5c 01 2b 00 2b 00 2b 00 2b 00 2b 00 2b     h..\.+.+.+.+.+.+
     ef5:	00 2b 00 2b 00 2b 00 2b 00 2b 00 2b 00 2b 00 82     .+.+.+.+.+.+.+..
     f05:	00 2b 00 2b 00 2b 00 82 00 2b 00 82 00 2b 00 82     .+.+.+...+...+..
     f15:	00 2b 00 82 00 2b 00 82 00 2b 00 82 00 2b 00 2b     .+...+...+...+.+
     f25:	00 2b 00 82 00 2b 00 2b 00 2b 00 82 00 2b 00 2b     .+...+.+.+...+.+
     f35:	00 2b 00 2b 00 2b 00 82 00 2b 00 2b 00 2b 00 2b     .+.+.+...+.+.+.+
     f45:	00 2b 00 2b 00 2b 00 82 00 2b 00 2b 00 2b 00 82     .+.+.+...+.+.+..
     f55:	00 2b 00 82 00 2b 00 2b 00 2b 00 82 00 2b 00 82     .+...+.+.+...+..
     f65:	00 2b 00 82 00 2b 00 de 0b b6 02 ac 00 2b 00 ec     .+...+.......+..
     f75:	1c b6 02 ac 00 2b 00 00 00                          .....+...

00000f7e <sharpCode>:
     f7e:	68 15 00 8e 00 16 00 3d 00 16 00 3d 00 16 00 3d     h......=...=...=
     f8e:	00 16 00 3d 00 16 00 3d 00 16 00 8e 00 16 00 8e     ...=...=........
     f9e:	00 16 00 3d 00 16 00 8e 00 16 00 3d 00 16 00 3d     ...=.......=...=
     fae:	00 16 00 3d 00 16 00 8e 00 16 00 3d 00 16 00 ac     ...=.......=....
     fbe:	0d 16 00 8e 00 16 00 3d 00 16 00 3d 00 16 00 3d     .......=...=...=
     fce:	00 16 00 3d 00 16 00 8e 00 16 00 3d 00 16 00 3d     ...=.......=...=
     fde:	00 16 00 8e 00 16 00 3d 00 16 00 8e 00 16 00 8e     .......=........
     fee:	00 16 00 8e 00 16 00 3d 00 16 00 8e 00 16 00 ac     .......=........
     ffe:	0d 16 00 8e 00 16 00 3d 00 16 00 3d 00 16 00 3d     .......=...=...=
    100e:	00 16 00 3d 00 16 00 3d 00 16 00 8e 00 16 00 8e     ...=...=........
    101e:	00 16 00 3d 00 16 00 8e 00 16 00 3d 00 16 00 3d     ...=.......=...=
    102e:	00 16 00 3d 00 16 00 8e 00 16 00 3d 00 16 00 ac     ...=.......=....
    103e:	0d 16 00 8e 00 16 00 3d 00 16 00 3d 00 16 00 3d     .......=...=...=
    104e:	00 16 00 3d 00 16 00 8e 00 16 00 3d 00 16 00 3d     ...=.......=...=
    105e:	00 16 00 8e 00 16 00 3d 00 16 00 8e 00 16 00 8e     .......=........
    106e:	00 16 00 8e 00 16 00 3d 00 16 00 8e 00 16 00 00     .......=........
	...

0000107f <panasonicCode>:
    107f:	6c 03 01 81 00 20 00 21 00 20 00 62 00 20 00 21     l.... .!. .b. .!
    108f:	00 20 00 21 00 20 00 21 00 20 00 21 00 20 00 21     . .!. .!. .!. .!
    109f:	00 20 00 21 00 20 00 21 00 20 00 21 00 20 00 21     . .!. .!. .!. .!
    10af:	00 20 00 21 00 20 00 21 00 20 00 62 00 20 00 21     . .!. .!. .b. .!
    10bf:	00 20 00 21 00 20 00 21 00 20 00 21 00 20 00 21     . .!. .!. .!. .!
    10cf:	00 20 00 21 00 20 00 21 00 20 00 21 00 20 00 21     . .!. .!. .!. .!
    10df:	00 20 00 62 00 20 00 21 00 20 00 21 00 20 00 21     . .b. .!. .!. .!
    10ef:	00 20 00 21 00 20 00 21 00 20 00 21 00 20 00 21     . .!. .!. .!. .!
    10ff:	00 20 00 21 00 20 00 62 00 20 00 21 00 20 00 62     . .!. .b. .!. .b
    110f:	00 20 00 62 00 20 00 62 00 20 00 62 00 20 00 21     . .b. .b. .b. .!
    111f:	00 20 00 21 00 20 00 62 00 20 00 21 00 20 00 62     . .!. .b. .!. .b
    112f:	00 20 00 62 00 20 00 62 00 20 00 62 00 20 00 21     . .b. .b. .b. .!
    113f:	00 20 00 62 00 20 00 ca 15 03 01 82 00 20 00 21     . .b. ....... .!
    114f:	00 20 00 62 00 20 00 21 00 20 00 21 00 20 00 21     . .b. .!. .!. .!
    115f:	00 20 00 21 00 20 00 21 00 20 00 21 00 20 00 21     . .!. .!. .!. .!
    116f:	00 20 00 21 00 20 00 21 00 20 00 21 00 20 00 21     . .!. .!. .!. .!
    117f:	00 20 00 62 00 20 00 21 00 20 00 21 00 20 00 21     . .b. .!. .!. .!
    118f:	00 20 00 21 00 20 00 21 00 20 00 21 00 20 00 21     . .!. .!. .!. .!
    119f:	00 20 00 21 00 20 00 21 00 20 00 62 00 20 00 21     . .!. .!. .b. .!
    11af:	00 20 00 21 00 20 00 21 00 20 00 21 00 20 00 21     . .!. .!. .!. .!
    11bf:	00 20 00 21 00 20 00 21 00 20 00 21 00 20 00 62     . .!. .!. .!. .b
    11cf:	00 20 00 21 00 20 00 62 00 20 00 62 00 20 00 62     . .!. .b. .b. .b
    11df:	00 20 00 62 00 20 00 21 00 20 00 21 00 20 00 62     . .b. .!. .!. .b
    11ef:	00 20 00 21 00 20 00 62 00 20 00 62 00 20 00 62     . .!. .b. .b. .b
    11ff:	00 20 00 62 00 20 00 21 00 20 00 62 00 20 00 00     . .b. .!. .b. ..
	...

00001210 <rcaCode>:
    1210:	46 c9 01 c8 01 3a 00 e4 00 3a 00 e4 00 3a 00 e4     F....:...:...:..
    1220:	00 3a 00 e4 00 3a 00 71 00 3a 00 71 00 3a 00 e4     .:...:.q.:.q.:..
    1230:	00 3a 00 71 00 3a 00 e4 00 3a 00 71 00 3a 00 e4     .:.q.:...:.q.:..
    1240:	00 3a 00 71 00 3a 00 71 00 3a 00 71 00 3a 00 71     .:.q.:.q.:.q.:.q
    1250:	00 3a 00 71 00 3a 00 e4 00 3a 00 e4 00 3a 00 71     .:.q.:...:...:.q
    1260:	00 3a 00 e4 00 3a 00 71 00 3a 00 e4 00 3a 00 71     .:...:.q.:...:.q
    1270:	00 3a 00 e4 00 3a 00 91 03 c9 01 c8 01 3a 00 e4     .:...:.......:..
    1280:	00 3a 00 e4 00 3a 00 e4 00 3a 00 e4 00 3a 00 71     .:...:...:...:.q
    1290:	00 3a 00 71 00 3a 00 e4 00 3a 00 71 00 3a 00 e4     .:.q.:...:.q.:..
    12a0:	00 3a 00 71 00 3a 00 e4 00 3a 00 71 00 3a 00 71     .:.q.:...:.q.:.q
    12b0:	00 3a 00 71 00 3a 00 71 00 3a 00 71 00 3a 00 e4     .:.q.:.q.:.q.:..
    12c0:	00 3a 00 e4 00 3a 00 71 00 3a 00 e4 00 3a 00 71     .:...:.q.:...:.q
    12d0:	00 3a 00 e4 00 3a 00 71 00 3a 00 e4 00 3a 00 00     .:...:.q.:...:..
	...

000012e1 <sonyCode>:
    12e1:	68 b8 00 2d 00 5c 00 2d 00 2e 00 2d 00 5c 00 2d     h..-.\.-...-.\.-
    12f1:	00 2e 00 2d 00 5c 00 2d 00 2e 00 2d 00 2e 00 2d     ...-.\.-...-...-
    1301:	00 5c 00 2d 00 2e 00 2d 00 2e 00 2d 00 2e 00 2d     .\.-...-...-...-
    1311:	00 2e 00 14 08 b8 00 2d 00 5c 00 2d 00 2e 00 2d     .......-.\.-...-
    1321:	00 5c 00 2d 00 2e 00 2d 00 5c 00 2d 00 2e 00 2d     .\.-...-.\.-...-
    1331:	00 2e 00 2d 00 5c 00 2d 00 2e 00 2d 00 2e 00 2d     ...-.\.-...-...-
    1341:	00 2e 00 2d 00 2e 00 00 00                          ...-.....

0000134a <__ctors_end>:
    134a:	11 24       	eor	r1, r1
    134c:	1f be       	out	0x3f, r1	; 63
    134e:	cf e5       	ldi	r28, 0x5F	; 95
    1350:	d2 e0       	ldi	r29, 0x02	; 2
    1352:	de bf       	out	0x3e, r29	; 62
    1354:	cd bf       	out	0x3d, r28	; 61

00001356 <__do_copy_data>:
    1356:	10 e0       	ldi	r17, 0x00	; 0
    1358:	a0 e6       	ldi	r26, 0x60	; 96
    135a:	b0 e0       	ldi	r27, 0x00	; 0
    135c:	ec e2       	ldi	r30, 0x2C	; 44
    135e:	ff e1       	ldi	r31, 0x1F	; 31
    1360:	02 c0       	rjmp	.+4      	; 0x1366 <__do_copy_data+0x10>
    1362:	05 90       	lpm	r0, Z+
    1364:	0d 92       	st	X+, r0
    1366:	aa 36       	cpi	r26, 0x6A	; 106
    1368:	b1 07       	cpc	r27, r17
    136a:	d9 f7       	brne	.-10     	; 0x1362 <__do_copy_data+0xc>

0000136c <__do_clear_bss>:
    136c:	20 e0       	ldi	r18, 0x00	; 0
    136e:	aa e6       	ldi	r26, 0x6A	; 106
    1370:	b0 e0       	ldi	r27, 0x00	; 0
    1372:	01 c0       	rjmp	.+2      	; 0x1376 <.do_clear_bss_start>

00001374 <.do_clear_bss_loop>:
    1374:	1d 92       	st	X+, r1

00001376 <.do_clear_bss_start>:
    1376:	af 3a       	cpi	r26, 0xAF	; 175
    1378:	b2 07       	cpc	r27, r18
    137a:	e1 f7       	brne	.-8      	; 0x1374 <.do_clear_bss_loop>
    137c:	db d1       	rcall	.+950    	; 0x1734 <main>
    137e:	d4 c5       	rjmp	.+2984   	; 0x1f28 <_exit>

00001380 <__bad_interrupt>:
    1380:	3f c6       	rjmp	.+3198   	; 0x2000 <__TEXT_REGION_LENGTH__>

00001382 <TouchRead>:
		LED1PORT |= 1<<LED3PIN;
		break;
	}
}

int TouchRead(int Pin, int samples){
    1382:	cf 92       	push	r12
    1384:	df 92       	push	r13
    1386:	ef 92       	push	r14
    1388:	ff 92       	push	r15
    138a:	0f 93       	push	r16
    138c:	1f 93       	push	r17
	long totalValue = 0;
	for(int x=0; x<samples; x++){ 
    138e:	16 16       	cp	r1, r22
    1390:	17 06       	cpc	r1, r23
    1392:	5c f5       	brge	.+86     	; 0x13ea <TouchRead+0x68>
		PORTA |= 1<<Pin; //turn on pullup
    1394:	41 e0       	ldi	r20, 0x01	; 1
    1396:	50 e0       	ldi	r21, 0x00	; 0
    1398:	08 2e       	mov	r0, r24
    139a:	02 c0       	rjmp	.+4      	; 0x13a0 <TouchRead+0x1e>
    139c:	44 0f       	add	r20, r20
    139e:	55 1f       	adc	r21, r21
    13a0:	0a 94       	dec	r0
    13a2:	e2 f7       	brpl	.-8      	; 0x139c <TouchRead+0x1a>
    13a4:	f4 2e       	mov	r15, r20
		ADMUX =   0b00100000; // connect the ADC input and the internal sample and hold capacitor to ground to discharge it
		ADCSRA |= (1 << ADSC); // start the conversion
		while((ADCSRA & (1 << ADSC)));
		PORTA &= ~(1<<Pin); //turn off pullup
    13a6:	a4 2f       	mov	r26, r20
    13a8:	a0 95       	com	r26
    13aa:	40 e0       	ldi	r20, 0x00	; 0
    13ac:	50 e0       	ldi	r21, 0x00	; 0
    13ae:	00 e0       	ldi	r16, 0x00	; 0
    13b0:	10 e0       	ldi	r17, 0x00	; 0
    13b2:	98 01       	movw	r18, r16

int TouchRead(int Pin, int samples){
	long totalValue = 0;
	for(int x=0; x<samples; x++){ 
		PORTA |= 1<<Pin; //turn on pullup
		ADMUX =   0b00100000; // connect the ADC input and the internal sample and hold capacitor to ground to discharge it
    13b4:	b0 e2       	ldi	r27, 0x20	; 32
}

int TouchRead(int Pin, int samples){
	long totalValue = 0;
	for(int x=0; x<samples; x++){ 
		PORTA |= 1<<Pin; //turn on pullup
    13b6:	9b b3       	in	r25, 0x1b	; 27
    13b8:	9f 29       	or	r25, r15
    13ba:	9b bb       	out	0x1b, r25	; 27
		ADMUX =   0b00100000; // connect the ADC input and the internal sample and hold capacitor to ground to discharge it
    13bc:	b7 b9       	out	0x07, r27	; 7
		ADCSRA |= (1 << ADSC); // start the conversion
    13be:	36 9a       	sbi	0x06, 6	; 6
		while((ADCSRA & (1 << ADSC)));
    13c0:	36 99       	sbic	0x06, 6	; 6
    13c2:	fe cf       	rjmp	.-4      	; 0x13c0 <TouchRead+0x3e>
		PORTA &= ~(1<<Pin); //turn off pullup
    13c4:	9b b3       	in	r25, 0x1b	; 27
    13c6:	9a 23       	and	r25, r26
    13c8:	9b bb       	out	0x1b, r25	; 27
		ADMUX = Pin; //set mux to correct pin
    13ca:	87 b9       	out	0x07, r24	; 7
		ADCSRA |= (1 << ADSC); // start the conversion
    13cc:	36 9a       	sbi	0x06, 6	; 6
		while((ADCSRA & (1 << ADSC)));
    13ce:	36 99       	sbic	0x06, 6	; 6
    13d0:	fe cf       	rjmp	.-4      	; 0x13ce <TouchRead+0x4c>
		totalValue += ADC;
    13d2:	e4 b1       	in	r30, 0x04	; 4
    13d4:	f5 b1       	in	r31, 0x05	; 5
    13d6:	0e 0f       	add	r16, r30
    13d8:	1f 1f       	adc	r17, r31
    13da:	21 1d       	adc	r18, r1
    13dc:	31 1d       	adc	r19, r1
	}
}

int TouchRead(int Pin, int samples){
	long totalValue = 0;
	for(int x=0; x<samples; x++){ 
    13de:	4f 5f       	subi	r20, 0xFF	; 255
    13e0:	5f 4f       	sbci	r21, 0xFF	; 255
    13e2:	64 17       	cp	r22, r20
    13e4:	75 07       	cpc	r23, r21
    13e6:	39 f7       	brne	.-50     	; 0x13b6 <TouchRead+0x34>
    13e8:	03 c0       	rjmp	.+6      	; 0x13f0 <TouchRead+0x6e>
		break;
	}
}

int TouchRead(int Pin, int samples){
	long totalValue = 0;
    13ea:	00 e0       	ldi	r16, 0x00	; 0
    13ec:	10 e0       	ldi	r17, 0x00	; 0
    13ee:	98 01       	movw	r18, r16
		ADMUX = Pin; //set mux to correct pin
		ADCSRA |= (1 << ADSC); // start the conversion
		while((ADCSRA & (1 << ADSC)));
		totalValue += ADC;
	}
	return totalValue/samples;
    13f0:	6b 01       	movw	r12, r22
    13f2:	77 0f       	add	r23, r23
    13f4:	ee 08       	sbc	r14, r14
    13f6:	ff 08       	sbc	r15, r15
    13f8:	c9 01       	movw	r24, r18
    13fa:	b8 01       	movw	r22, r16
    13fc:	a7 01       	movw	r20, r14
    13fe:	96 01       	movw	r18, r12
    1400:	3b d5       	rcall	.+2678   	; 0x1e78 <__divmodsi4>
}
    1402:	c9 01       	movw	r24, r18
    1404:	1f 91       	pop	r17
    1406:	0f 91       	pop	r16
    1408:	ff 90       	pop	r15
    140a:	ef 90       	pop	r14
    140c:	df 90       	pop	r13
    140e:	cf 90       	pop	r12
    1410:	08 95       	ret

00001412 <UpdateButtons>:
		
}
}

void UpdateButtons(){
	Slider1Value = TouchRead(SLIDER1PIN, 1) - Slider1Ref;
    1412:	61 e0       	ldi	r22, 0x01	; 1
    1414:	70 e0       	ldi	r23, 0x00	; 0
    1416:	84 e0       	ldi	r24, 0x04	; 4
    1418:	90 e0       	ldi	r25, 0x00	; 0
    141a:	b3 df       	rcall	.-154    	; 0x1382 <TouchRead>
    141c:	20 91 92 00 	lds	r18, 0x0092	; 0x800092 <Slider1Ref>
    1420:	30 91 93 00 	lds	r19, 0x0093	; 0x800093 <Slider1Ref+0x1>
    1424:	82 1b       	sub	r24, r18
    1426:	93 0b       	sbc	r25, r19
    1428:	90 93 95 00 	sts	0x0095, r25	; 0x800095 <Slider1Value+0x1>
    142c:	80 93 94 00 	sts	0x0094, r24	; 0x800094 <Slider1Value>
	Slider2Value = TouchRead(SLIDER2PIN, 1) - Slider2Ref;
    1430:	61 e0       	ldi	r22, 0x01	; 1
    1432:	70 e0       	ldi	r23, 0x00	; 0
    1434:	85 e0       	ldi	r24, 0x05	; 5
    1436:	90 e0       	ldi	r25, 0x00	; 0
    1438:	a4 df       	rcall	.-184    	; 0x1382 <TouchRead>
    143a:	20 91 8e 00 	lds	r18, 0x008E	; 0x80008e <Slider2Ref>
    143e:	30 91 8f 00 	lds	r19, 0x008F	; 0x80008f <Slider2Ref+0x1>
    1442:	82 1b       	sub	r24, r18
    1444:	93 0b       	sbc	r25, r19
    1446:	90 93 91 00 	sts	0x0091, r25	; 0x800091 <Slider2Value+0x1>
    144a:	80 93 90 00 	sts	0x0090, r24	; 0x800090 <Slider2Value>
	Slider3Value = TouchRead(SLIDER3PIN, 1) - Slider3Ref;
    144e:	61 e0       	ldi	r22, 0x01	; 1
    1450:	70 e0       	ldi	r23, 0x00	; 0
    1452:	86 e0       	ldi	r24, 0x06	; 6
    1454:	90 e0       	ldi	r25, 0x00	; 0
    1456:	95 df       	rcall	.-214    	; 0x1382 <TouchRead>
    1458:	20 91 8a 00 	lds	r18, 0x008A	; 0x80008a <Slider3Ref>
    145c:	30 91 8b 00 	lds	r19, 0x008B	; 0x80008b <Slider3Ref+0x1>
    1460:	82 1b       	sub	r24, r18
    1462:	93 0b       	sbc	r25, r19
    1464:	90 93 8d 00 	sts	0x008D, r25	; 0x80008d <Slider3Value+0x1>
    1468:	80 93 8c 00 	sts	0x008C, r24	; 0x80008c <Slider3Value>
	ButtonValue = TouchRead(BUTTONPIN, 1) - ButtonRef;
    146c:	61 e0       	ldi	r22, 0x01	; 1
    146e:	70 e0       	ldi	r23, 0x00	; 0
    1470:	87 e0       	ldi	r24, 0x07	; 7
    1472:	90 e0       	ldi	r25, 0x00	; 0
    1474:	86 df       	rcall	.-244    	; 0x1382 <TouchRead>
    1476:	20 91 96 00 	lds	r18, 0x0096	; 0x800096 <ButtonRef>
    147a:	30 91 97 00 	lds	r19, 0x0097	; 0x800097 <ButtonRef+0x1>
    147e:	82 1b       	sub	r24, r18
    1480:	93 0b       	sbc	r25, r19
    1482:	90 93 99 00 	sts	0x0099, r25	; 0x800099 <ButtonValue+0x1>
    1486:	80 93 98 00 	sts	0x0098, r24	; 0x800098 <ButtonValue>
	
	if(Slider1Value > 100){
    148a:	80 91 94 00 	lds	r24, 0x0094	; 0x800094 <Slider1Value>
    148e:	90 91 95 00 	lds	r25, 0x0095	; 0x800095 <Slider1Value+0x1>
    1492:	85 36       	cpi	r24, 0x65	; 101
    1494:	91 05       	cpc	r25, r1
    1496:	34 f0       	brlt	.+12     	; 0x14a4 <UpdateButtons+0x92>
		Slider1Touched = 1;
    1498:	81 e0       	ldi	r24, 0x01	; 1
    149a:	80 93 87 00 	sts	0x0087, r24	; 0x800087 <Slider1Touched>
		SliderTouched = 1;
    149e:	80 93 89 00 	sts	0x0089, r24	; 0x800089 <SliderTouched>
    14a2:	02 c0       	rjmp	.+4      	; 0x14a8 <UpdateButtons+0x96>
	} else {
		Slider1Touched = 0;
    14a4:	10 92 87 00 	sts	0x0087, r1	; 0x800087 <Slider1Touched>
	}
	if(Slider2Value > 100){
    14a8:	80 91 90 00 	lds	r24, 0x0090	; 0x800090 <Slider2Value>
    14ac:	90 91 91 00 	lds	r25, 0x0091	; 0x800091 <Slider2Value+0x1>
    14b0:	85 36       	cpi	r24, 0x65	; 101
    14b2:	91 05       	cpc	r25, r1
    14b4:	34 f0       	brlt	.+12     	; 0x14c2 <UpdateButtons+0xb0>
		Slider2Touched = 1;
    14b6:	81 e0       	ldi	r24, 0x01	; 1
    14b8:	80 93 86 00 	sts	0x0086, r24	; 0x800086 <Slider2Touched>
		SliderTouched = 1;
    14bc:	80 93 89 00 	sts	0x0089, r24	; 0x800089 <SliderTouched>
    14c0:	02 c0       	rjmp	.+4      	; 0x14c6 <UpdateButtons+0xb4>
	} else {
		Slider2Touched = 0;
    14c2:	10 92 86 00 	sts	0x0086, r1	; 0x800086 <Slider2Touched>
	}
	if(Slider3Value > 100){
    14c6:	80 91 8c 00 	lds	r24, 0x008C	; 0x80008c <Slider3Value>
    14ca:	90 91 8d 00 	lds	r25, 0x008D	; 0x80008d <Slider3Value+0x1>
    14ce:	85 36       	cpi	r24, 0x65	; 101
    14d0:	91 05       	cpc	r25, r1
    14d2:	34 f0       	brlt	.+12     	; 0x14e0 <UpdateButtons+0xce>
		Slider3Touched = 1;
    14d4:	81 e0       	ldi	r24, 0x01	; 1
    14d6:	80 93 85 00 	sts	0x0085, r24	; 0x800085 <Slider3Touched>
		SliderTouched = 1;
    14da:	80 93 89 00 	sts	0x0089, r24	; 0x800089 <SliderTouched>
    14de:	02 c0       	rjmp	.+4      	; 0x14e4 <UpdateButtons+0xd2>
	} else {
		Slider3Touched = 0;
    14e0:	10 92 85 00 	sts	0x0085, r1	; 0x800085 <Slider3Touched>
	}
	if(ButtonValue > 100){
    14e4:	80 91 98 00 	lds	r24, 0x0098	; 0x800098 <ButtonValue>
    14e8:	90 91 99 00 	lds	r25, 0x0099	; 0x800099 <ButtonValue+0x1>
    14ec:	85 36       	cpi	r24, 0x65	; 101
    14ee:	91 05       	cpc	r25, r1
    14f0:	3c f0       	brlt	.+14     	; 0x1500 <UpdateButtons+0xee>
		ButtonTouched = 1;
    14f2:	21 e0       	ldi	r18, 0x01	; 1
    14f4:	20 93 84 00 	sts	0x0084, r18	; 0x800084 <ButtonTouched>
	} else {
		ButtonTouched = 0;
	}
	
	if((ButtonTouched == 1) & (ButtonValue < 100)){
    14f8:	84 36       	cpi	r24, 0x64	; 100
    14fa:	91 05       	cpc	r25, r1
    14fc:	24 f0       	brlt	.+8      	; 0x1506 <UpdateButtons+0xf4>
    14fe:	08 c0       	rjmp	.+16     	; 0x1510 <UpdateButtons+0xfe>
		Slider3Touched = 0;
	}
	if(ButtonValue > 100){
		ButtonTouched = 1;
	} else {
		ButtonTouched = 0;
    1500:	10 92 84 00 	sts	0x0084, r1	; 0x800084 <ButtonTouched>
    1504:	05 c0       	rjmp	.+10     	; 0x1510 <UpdateButtons+0xfe>
	}
	
	if((ButtonTouched == 1) & (ButtonValue < 100)){
		ButtonReleased = 1;
    1506:	81 e0       	ldi	r24, 0x01	; 1
    1508:	80 93 83 00 	sts	0x0083, r24	; 0x800083 <ButtonReleased>
		ButtonTouched = 0;
    150c:	10 92 84 00 	sts	0x0084, r1	; 0x800084 <ButtonTouched>
	}
	
	if((SliderTouched == 1) & (Slider1Value < 100) & (Slider2Value < 100) & (Slider3Value < 100)){
    1510:	81 e0       	ldi	r24, 0x01	; 1
    1512:	90 91 89 00 	lds	r25, 0x0089	; 0x800089 <SliderTouched>
    1516:	91 30       	cpi	r25, 0x01	; 1
    1518:	09 f0       	breq	.+2      	; 0x151c <UpdateButtons+0x10a>
    151a:	80 e0       	ldi	r24, 0x00	; 0
    151c:	91 e0       	ldi	r25, 0x01	; 1
    151e:	20 91 94 00 	lds	r18, 0x0094	; 0x800094 <Slider1Value>
    1522:	30 91 95 00 	lds	r19, 0x0095	; 0x800095 <Slider1Value+0x1>
    1526:	24 36       	cpi	r18, 0x64	; 100
    1528:	31 05       	cpc	r19, r1
    152a:	0c f0       	brlt	.+2      	; 0x152e <UpdateButtons+0x11c>
    152c:	90 e0       	ldi	r25, 0x00	; 0
    152e:	98 23       	and	r25, r24
    1530:	81 e0       	ldi	r24, 0x01	; 1
    1532:	20 91 90 00 	lds	r18, 0x0090	; 0x800090 <Slider2Value>
    1536:	30 91 91 00 	lds	r19, 0x0091	; 0x800091 <Slider2Value+0x1>
    153a:	24 36       	cpi	r18, 0x64	; 100
    153c:	31 05       	cpc	r19, r1
    153e:	0c f0       	brlt	.+2      	; 0x1542 <UpdateButtons+0x130>
    1540:	80 e0       	ldi	r24, 0x00	; 0
    1542:	89 23       	and	r24, r25
    1544:	81 f0       	breq	.+32     	; 0x1566 <UpdateButtons+0x154>
    1546:	81 e0       	ldi	r24, 0x01	; 1
    1548:	20 91 8c 00 	lds	r18, 0x008C	; 0x80008c <Slider3Value>
    154c:	30 91 8d 00 	lds	r19, 0x008D	; 0x80008d <Slider3Value+0x1>
    1550:	24 36       	cpi	r18, 0x64	; 100
    1552:	31 05       	cpc	r19, r1
    1554:	0c f0       	brlt	.+2      	; 0x1558 <UpdateButtons+0x146>
    1556:	80 e0       	ldi	r24, 0x00	; 0
    1558:	88 23       	and	r24, r24
    155a:	29 f0       	breq	.+10     	; 0x1566 <UpdateButtons+0x154>
		SliderReleased = 1;
    155c:	81 e0       	ldi	r24, 0x01	; 1
    155e:	80 93 88 00 	sts	0x0088, r24	; 0x800088 <SliderReleased>
		SliderTouched = 0;
    1562:	10 92 89 00 	sts	0x0089, r1	; 0x800089 <SliderTouched>
    1566:	08 95       	ret

00001568 <TVBGone>:
		totalValue += ADC;
	}
	return totalValue/samples;
}

void TVBGone(){ 
    1568:	ef 92       	push	r14
    156a:	ff 92       	push	r15
    156c:	0f 93       	push	r16
    156e:	1f 93       	push	r17
    1570:	cf 93       	push	r28
    1572:	df 93       	push	r29

	 for (i=0; i<num_codes; i++) {   // for every POWER code in our collection
    1574:	10 92 ae 00 	sts	0x00AE, r1	; 0x8000ae <i>
    1578:	80 91 69 00 	lds	r24, 0x0069	; 0x800069 <num_codes>
    157c:	88 23       	and	r24, r24
    157e:	09 f4       	brne	.+2      	; 0x1582 <TVBGone+0x1a>
    1580:	c5 c0       	rjmp	.+394    	; 0x170c <TVBGone+0x1a4>
    1582:	e0 e0       	ldi	r30, 0x00	; 0
			 // read the onTime and offTime from the program memory
			 ontime = pgm_read_word(thecode_p+(j*4)+1);
			 offtime = pgm_read_word(thecode_p+(j*4)+3);

			 // transmit this codeElement (ontime and offtime)
			 IRPulse = 1;
    1584:	ee 24       	eor	r14, r14
    1586:	e3 94       	inc	r14
    1588:	fe 2c       	mov	r15, r14
			 LED3PORT &= ~(1<<LED3PIN);
			 SliderReleased = 0;
			 break;
		 }
		 
		 OCR1A = 104; //Put timer back to normal
    158a:	08 e6       	ldi	r16, 0x68	; 104
    158c:	10 e0       	ldi	r17, 0x00	; 0
		 IRPulseCounter = 20000; //delay ~250mS between codes
    158e:	c0 e2       	ldi	r28, 0x20	; 32
    1590:	de e4       	ldi	r29, 0x4E	; 78

void TVBGone(){ 

	 for (i=0; i<num_codes; i++) {   // for every POWER code in our collection

		 PGM_P thecode_p = pgm_read_word(powerCodes+i);     // point to next POWER code
    1592:	f0 e0       	ldi	r31, 0x00	; 0
    1594:	ee 0f       	add	r30, r30
    1596:	ff 1f       	adc	r31, r31
    1598:	ee 5d       	subi	r30, 0xDE	; 222
    159a:	ff 4f       	sbci	r31, 0xFF	; 255
    159c:	85 91       	lpm	r24, Z+
    159e:	94 91       	lpm	r25, Z
    15a0:	9c 01       	movw	r18, r24

		 uint8_t freq = pgm_read_byte(thecode_p);
    15a2:	fc 01       	movw	r30, r24
    15a4:	84 91       	lpm	r24, Z

		 // set OCR for Timer1 and Timer0 to output this POWER code's carrier frequency
		 OCR1A = freq;
    15a6:	90 e0       	ldi	r25, 0x00	; 0
    15a8:	9b bd       	out	0x2b, r25	; 43
    15aa:	8a bd       	out	0x2a, r24	; 42
		 
		 // transmit all codeElements for this POWER code (a codeElement is an onTime and an offTime)
		 // transmitting onTime means pulsing the IR emitters at the carrier frequency for the length of time specified in onTime
		 // transmitting offTime means no output from the IR emitters for the length of time specified in offTime
		 j = 0;  // index into codeElements of this POWER code
    15ac:	10 92 a5 00 	sts	0x00A5, r1	; 0x8000a5 <j>
		 do {
			 // read the onTime and offTime from the program memory
			 ontime = pgm_read_word(thecode_p+(j*4)+1);
    15b0:	80 91 a5 00 	lds	r24, 0x00A5	; 0x8000a5 <j>
    15b4:	90 e0       	ldi	r25, 0x00	; 0
    15b6:	88 0f       	add	r24, r24
    15b8:	99 1f       	adc	r25, r25
    15ba:	88 0f       	add	r24, r24
    15bc:	99 1f       	adc	r25, r25
    15be:	fc 01       	movw	r30, r24
    15c0:	31 96       	adiw	r30, 0x01	; 1
    15c2:	e2 0f       	add	r30, r18
    15c4:	f3 1f       	adc	r31, r19
    15c6:	45 91       	lpm	r20, Z+
    15c8:	54 91       	lpm	r21, Z
    15ca:	50 93 ad 00 	sts	0x00AD, r21	; 0x8000ad <ontime+0x1>
    15ce:	40 93 ac 00 	sts	0x00AC, r20	; 0x8000ac <ontime>
			 offtime = pgm_read_word(thecode_p+(j*4)+3);
    15d2:	fc 01       	movw	r30, r24
    15d4:	33 96       	adiw	r30, 0x03	; 3
    15d6:	e2 0f       	add	r30, r18
    15d8:	f3 1f       	adc	r31, r19
    15da:	85 91       	lpm	r24, Z+
    15dc:	94 91       	lpm	r25, Z
    15de:	90 93 ab 00 	sts	0x00AB, r25	; 0x8000ab <offtime+0x1>
    15e2:	80 93 aa 00 	sts	0x00AA, r24	; 0x8000aa <offtime>

			 // transmit this codeElement (ontime and offtime)
			 IRPulse = 1;
    15e6:	f0 92 9c 00 	sts	0x009C, r15	; 0x80009c <IRPulse>
			 
			 // keep transmitting carrier for onTime
			 IRPulseCounter = ontime;
    15ea:	50 93 9b 00 	sts	0x009B, r21	; 0x80009b <IRPulseCounter+0x1>
    15ee:	40 93 9a 00 	sts	0x009A, r20	; 0x80009a <IRPulseCounter>
			 while(IRPulseCounter > 0){};
    15f2:	80 91 9a 00 	lds	r24, 0x009A	; 0x80009a <IRPulseCounter>
    15f6:	90 91 9b 00 	lds	r25, 0x009B	; 0x80009b <IRPulseCounter+0x1>
    15fa:	89 2b       	or	r24, r25
    15fc:	d1 f7       	brne	.-12     	; 0x15f2 <TVBGone+0x8a>

			 IRPulse = 0;         
    15fe:	10 92 9c 00 	sts	0x009C, r1	; 0x80009c <IRPulse>
			 IRLEDPORT &= ~(1<<IRLEDPIN); // turn off IR LED
    1602:	d8 98       	cbi	0x1b, 0	; 27

			 IRPulseCounter = offtime;
    1604:	40 91 aa 00 	lds	r20, 0x00AA	; 0x8000aa <offtime>
    1608:	50 91 ab 00 	lds	r21, 0x00AB	; 0x8000ab <offtime+0x1>
    160c:	50 93 9b 00 	sts	0x009B, r21	; 0x80009b <IRPulseCounter+0x1>
    1610:	40 93 9a 00 	sts	0x009A, r20	; 0x80009a <IRPulseCounter>
			 while(IRPulseCounter > 0){};
    1614:	80 91 9a 00 	lds	r24, 0x009A	; 0x80009a <IRPulseCounter>
    1618:	90 91 9b 00 	lds	r25, 0x009B	; 0x80009b <IRPulseCounter+0x1>
    161c:	89 2b       	or	r24, r25
    161e:	d1 f7       	brne	.-12     	; 0x1614 <TVBGone+0xac>
				 
			 j++;
    1620:	80 91 a5 00 	lds	r24, 0x00A5	; 0x8000a5 <j>
    1624:	8f 5f       	subi	r24, 0xFF	; 255
    1626:	80 93 a5 00 	sts	0x00A5, r24	; 0x8000a5 <j>
		 } while ( offtime != 0 );  // offTime = 0 signifies last codeElement for a POWER code
    162a:	45 2b       	or	r20, r21
    162c:	09 f0       	breq	.+2      	; 0x1630 <TVBGone+0xc8>
    162e:	c0 cf       	rjmp	.-128    	; 0x15b0 <TVBGone+0x48>
         
		 IRLEDPORT &= ~(1<<IRLEDPIN); // turn off IR LED
    1630:	d8 98       	cbi	0x1b, 0	; 27
		 
		 UpdateButtons();
    1632:	ef de       	rcall	.-546    	; 0x1412 <UpdateButtons>
		 
		 if(Slider2Touched == 1){
    1634:	80 91 86 00 	lds	r24, 0x0086	; 0x800086 <Slider2Touched>
    1638:	81 30       	cpi	r24, 0x01	; 1
    163a:	11 f4       	brne	.+4      	; 0x1640 <TVBGone+0xd8>
			 LED2PORT |= 1<<LED2PIN;
    163c:	da 9a       	sbi	0x1b, 2	; 27
    163e:	01 c0       	rjmp	.+2      	; 0x1642 <TVBGone+0xda>
		 } else {
			 LED2PORT &= ~(1<<LED2PIN);
    1640:	da 98       	cbi	0x1b, 2	; 27
		 }
		 if(Slider3Touched == 1){
    1642:	80 91 85 00 	lds	r24, 0x0085	; 0x800085 <Slider3Touched>
    1646:	81 30       	cpi	r24, 0x01	; 1
    1648:	11 f4       	brne	.+4      	; 0x164e <TVBGone+0xe6>
			 LED1PORT |= 1<<LED1PIN;
    164a:	d9 9a       	sbi	0x1b, 1	; 27
    164c:	01 c0       	rjmp	.+2      	; 0x1650 <TVBGone+0xe8>
		 } else {
			 LED1PORT &= ~(1<<LED1PIN);
    164e:	d9 98       	cbi	0x1b, 1	; 27
		 }
		 if(Slider1Touched == 1){
    1650:	80 91 87 00 	lds	r24, 0x0087	; 0x800087 <Slider1Touched>
    1654:	81 30       	cpi	r24, 0x01	; 1
    1656:	19 f4       	brne	.+6      	; 0x165e <TVBGone+0xf6>
			 TVContinuous = 1;
    1658:	f0 92 6a 00 	sts	0x006A, r15	; 0x80006a <__data_end>
    165c:	05 c0       	rjmp	.+10     	; 0x1668 <TVBGone+0x100>
		 }
		 
		 if(TVContinuous == 1){
    165e:	80 91 6a 00 	lds	r24, 0x006A	; 0x80006a <__data_end>
    1662:	81 30       	cpi	r24, 0x01	; 1
    1664:	09 f0       	breq	.+2      	; 0x1668 <TVBGone+0x100>
    1666:	5c c0       	rjmp	.+184    	; 0x1720 <TVBGone+0x1b8>
			 LED1PORT |= 1<<LED1PIN;
    1668:	d9 9a       	sbi	0x1b, 1	; 27
			 LED2PORT |= 1<<LED2PIN;
    166a:	da 9a       	sbi	0x1b, 2	; 27
			 LED3PORT |= 1<<LED3PIN;
    166c:	db 9a       	sbi	0x1b, 3	; 27
		 }
		 
		 if((SliderTouched == 1) & (SliderReleased == 1)){
    166e:	20 91 89 00 	lds	r18, 0x0089	; 0x800089 <SliderTouched>
    1672:	8e 2d       	mov	r24, r14
    1674:	90 91 88 00 	lds	r25, 0x0088	; 0x800088 <SliderReleased>
    1678:	91 30       	cpi	r25, 0x01	; 1
    167a:	09 f0       	breq	.+2      	; 0x167e <TVBGone+0x116>
    167c:	80 e0       	ldi	r24, 0x00	; 0
    167e:	88 23       	and	r24, r24
    1680:	e9 f0       	breq	.+58     	; 0x16bc <TVBGone+0x154>
    1682:	8e 2d       	mov	r24, r14
    1684:	21 30       	cpi	r18, 0x01	; 1
    1686:	09 f0       	breq	.+2      	; 0x168a <TVBGone+0x122>
    1688:	80 e0       	ldi	r24, 0x00	; 0
    168a:	88 23       	and	r24, r24
    168c:	b9 f0       	breq	.+46     	; 0x16bc <TVBGone+0x154>
			 if(TVContinuous == 1){
    168e:	80 91 6a 00 	lds	r24, 0x006A	; 0x80006a <__data_end>
    1692:	81 30       	cpi	r24, 0x01	; 1
    1694:	99 f4       	brne	.+38     	; 0x16bc <TVBGone+0x154>
				 SliderReleased = 0;
    1696:	10 92 88 00 	sts	0x0088, r1	; 0x800088 <SliderReleased>
				 LED1PORT &= ~(1<<LED1PIN);
    169a:	d9 98       	cbi	0x1b, 1	; 27
				 LED2PORT &= ~(1<<LED2PIN);
    169c:	da 98       	cbi	0x1b, 2	; 27
				 LED3PORT &= ~(1<<LED3PIN);
    169e:	db 98       	cbi	0x1b, 3	; 27
				 while(SliderReleased == 0) UpdateButtons();
    16a0:	80 91 88 00 	lds	r24, 0x0088	; 0x800088 <SliderReleased>
    16a4:	81 11       	cpse	r24, r1
    16a6:	05 c0       	rjmp	.+10     	; 0x16b2 <TVBGone+0x14a>
    16a8:	b4 de       	rcall	.-664    	; 0x1412 <UpdateButtons>
    16aa:	80 91 88 00 	lds	r24, 0x0088	; 0x800088 <SliderReleased>
    16ae:	88 23       	and	r24, r24
    16b0:	d9 f3       	breq	.-10     	; 0x16a8 <TVBGone+0x140>
				 SliderReleased = 0;
    16b2:	10 92 88 00 	sts	0x0088, r1	; 0x800088 <SliderReleased>
				 TVContinuous = 0;
    16b6:	10 92 6a 00 	sts	0x006A, r1	; 0x80006a <__data_end>
				 break;
    16ba:	28 c0       	rjmp	.+80     	; 0x170c <TVBGone+0x1a4>
			 }
		 }
		 
		 
		 if((SliderTouched == 0) & (TVContinuous == 0) ){
    16bc:	8e 2d       	mov	r24, r14
    16be:	90 91 6a 00 	lds	r25, 0x006A	; 0x80006a <__data_end>
    16c2:	91 11       	cpse	r25, r1
    16c4:	80 e0       	ldi	r24, 0x00	; 0
    16c6:	88 23       	and	r24, r24
    16c8:	59 f0       	breq	.+22     	; 0x16e0 <TVBGone+0x178>
    16ca:	8e 2d       	mov	r24, r14
    16cc:	21 11       	cpse	r18, r1
    16ce:	80 e0       	ldi	r24, 0x00	; 0
    16d0:	88 23       	and	r24, r24
    16d2:	31 f0       	breq	.+12     	; 0x16e0 <TVBGone+0x178>
			 LED1PORT &= ~(1<<LED1PIN);
    16d4:	d9 98       	cbi	0x1b, 1	; 27
			 LED2PORT &= ~(1<<LED2PIN);
    16d6:	da 98       	cbi	0x1b, 2	; 27
			 LED3PORT &= ~(1<<LED3PIN);
    16d8:	db 98       	cbi	0x1b, 3	; 27
			 SliderReleased = 0;
    16da:	10 92 88 00 	sts	0x0088, r1	; 0x800088 <SliderReleased>
			 break;
    16de:	16 c0       	rjmp	.+44     	; 0x170c <TVBGone+0x1a4>
		 }
		 
		 OCR1A = 104; //Put timer back to normal
    16e0:	1b bd       	out	0x2b, r17	; 43
    16e2:	0a bd       	out	0x2a, r16	; 42
		 IRPulseCounter = 20000; //delay ~250mS between codes
    16e4:	d0 93 9b 00 	sts	0x009B, r29	; 0x80009b <IRPulseCounter+0x1>
    16e8:	c0 93 9a 00 	sts	0x009A, r28	; 0x80009a <IRPulseCounter>
		 while(IRPulseCounter > 0){};
    16ec:	80 91 9a 00 	lds	r24, 0x009A	; 0x80009a <IRPulseCounter>
    16f0:	90 91 9b 00 	lds	r25, 0x009B	; 0x80009b <IRPulseCounter+0x1>
    16f4:	89 2b       	or	r24, r25
    16f6:	d1 f7       	brne	.-12     	; 0x16ec <TVBGone+0x184>
	return totalValue/samples;
}

void TVBGone(){ 

	 for (i=0; i<num_codes; i++) {   // for every POWER code in our collection
    16f8:	e0 91 ae 00 	lds	r30, 0x00AE	; 0x8000ae <i>
    16fc:	ef 5f       	subi	r30, 0xFF	; 255
    16fe:	e0 93 ae 00 	sts	0x00AE, r30	; 0x8000ae <i>
    1702:	80 91 69 00 	lds	r24, 0x0069	; 0x800069 <num_codes>
    1706:	e8 17       	cp	r30, r24
    1708:	08 f4       	brcc	.+2      	; 0x170c <TVBGone+0x1a4>
    170a:	43 cf       	rjmp	.-378    	; 0x1592 <TVBGone+0x2a>
		 OCR1A = 104; //Put timer back to normal
		 IRPulseCounter = 20000; //delay ~250mS between codes
		 while(IRPulseCounter > 0){};
	 }
	 
	 LED1PORT &= ~(1<<LED1PIN);
    170c:	d9 98       	cbi	0x1b, 1	; 27
	 LED2PORT &= ~(1<<LED2PIN);
    170e:	da 98       	cbi	0x1b, 2	; 27
	 LED3PORT &= ~(1<<LED3PIN);
    1710:	db 98       	cbi	0x1b, 3	; 27
	 TVContinuous = 0;
    1712:	10 92 6a 00 	sts	0x006A, r1	; 0x80006a <__data_end>
	 OCR1A = 104; //Put timer back to normal
    1716:	88 e6       	ldi	r24, 0x68	; 104
    1718:	90 e0       	ldi	r25, 0x00	; 0
    171a:	9b bd       	out	0x2b, r25	; 43
    171c:	8a bd       	out	0x2a, r24	; 42
}
    171e:	03 c0       	rjmp	.+6      	; 0x1726 <TVBGone+0x1be>
			 LED1PORT |= 1<<LED1PIN;
			 LED2PORT |= 1<<LED2PIN;
			 LED3PORT |= 1<<LED3PIN;
		 }
		 
		 if((SliderTouched == 1) & (SliderReleased == 1)){
    1720:	20 91 89 00 	lds	r18, 0x0089	; 0x800089 <SliderTouched>
    1724:	cb cf       	rjmp	.-106    	; 0x16bc <TVBGone+0x154>
	 LED1PORT &= ~(1<<LED1PIN);
	 LED2PORT &= ~(1<<LED2PIN);
	 LED3PORT &= ~(1<<LED3PIN);
	 TVContinuous = 0;
	 OCR1A = 104; //Put timer back to normal
}
    1726:	df 91       	pop	r29
    1728:	cf 91       	pop	r28
    172a:	1f 91       	pop	r17
    172c:	0f 91       	pop	r16
    172e:	ff 90       	pop	r15
    1730:	ef 90       	pop	r14
    1732:	08 95       	ret

00001734 <main>:
#endif

int main(void)
{
    //Setup
	DDRA |= 1<<LED1PIN | 1<<LED2PIN | 1<<LED3PIN | 1<<IRLEDPIN; //Set LED pins to OUTPUT
    1734:	8a b3       	in	r24, 0x1a	; 26
    1736:	8f 60       	ori	r24, 0x0F	; 15
    1738:	8a bb       	out	0x1a, r24	; 26
	DDRB |= 1<<BUZZPIN; //Set Buzzer pin to OUTPUT
    173a:	ba 9a       	sbi	0x17, 2	; 23

	//Setup timer1 for LEDs
	TCCR1A = 0;
    173c:	1f bc       	out	0x2f, r1	; 47
	TCCR1B = 0;
    173e:	1e bc       	out	0x2e, r1	; 46
	TCNT1 = 0;
    1740:	1d bc       	out	0x2d, r1	; 45
    1742:	1c bc       	out	0x2c, r1	; 44
	// 76190.47619047618 Hz (8000000/((104+1)*1))
	OCR1A = 104;
    1744:	88 e6       	ldi	r24, 0x68	; 104
    1746:	90 e0       	ldi	r25, 0x00	; 0
    1748:	9b bd       	out	0x2b, r25	; 43
    174a:	8a bd       	out	0x2a, r24	; 42
	// CTC
	TCCR1B |= (1 << WGM12);
    174c:	8e b5       	in	r24, 0x2e	; 46
    174e:	88 60       	ori	r24, 0x08	; 8
    1750:	8e bd       	out	0x2e, r24	; 46
	// Prescaler 1
	TCCR1B |= (1 << CS10);
    1752:	8e b5       	in	r24, 0x2e	; 46
    1754:	81 60       	ori	r24, 0x01	; 1
    1756:	8e bd       	out	0x2e, r24	; 46
	// Output Compare Match A Interrupt Enable
	TIMSK1 |= (1 << OCIE1A);
    1758:	61 9a       	sbi	0x0c, 1	; 12

	//Setup timer0 for Sound
	TCCR0A |= 1<<COM0A1; //non-inverting mode (pin OC0A)
    175a:	80 b7       	in	r24, 0x30	; 48
    175c:	80 68       	ori	r24, 0x80	; 128
    175e:	80 bf       	out	0x30, r24	; 48
	TCCR0A |= 1<<WGM01 | 1<<WGM00; //Fast PWM
    1760:	80 b7       	in	r24, 0x30	; 48
    1762:	83 60       	ori	r24, 0x03	; 3
    1764:	80 bf       	out	0x30, r24	; 48
	OCR0A = 128;
    1766:	80 e8       	ldi	r24, 0x80	; 128
    1768:	86 bf       	out	0x36, r24	; 54


	sei(); //enable interrupts
    176a:	78 94       	sei
	
	ADCSRA |= (1 << ADPS1) | (1 << ADPS2); //set prescaler to 64 (8MHz/64 = 125KHz)
    176c:	86 b1       	in	r24, 0x06	; 6
    176e:	86 60       	ori	r24, 0x06	; 6
    1770:	86 b9       	out	0x06, r24	; 6
	ADCSRA |= (1 << ADEN); //enable ADC
    1772:	37 9a       	sbi	0x06, 7	; 6

	//Get baseline values at startup
	ButtonRef = TouchRead(BUTTONPIN, 50);
    1774:	62 e3       	ldi	r22, 0x32	; 50
    1776:	70 e0       	ldi	r23, 0x00	; 0
    1778:	87 e0       	ldi	r24, 0x07	; 7
    177a:	90 e0       	ldi	r25, 0x00	; 0
    177c:	02 de       	rcall	.-1020   	; 0x1382 <TouchRead>
    177e:	90 93 97 00 	sts	0x0097, r25	; 0x800097 <ButtonRef+0x1>
    1782:	80 93 96 00 	sts	0x0096, r24	; 0x800096 <ButtonRef>
	Slider1Ref = TouchRead(SLIDER1PIN, 50);
    1786:	62 e3       	ldi	r22, 0x32	; 50
    1788:	70 e0       	ldi	r23, 0x00	; 0
    178a:	84 e0       	ldi	r24, 0x04	; 4
    178c:	90 e0       	ldi	r25, 0x00	; 0
    178e:	f9 dd       	rcall	.-1038   	; 0x1382 <TouchRead>
    1790:	90 93 93 00 	sts	0x0093, r25	; 0x800093 <Slider1Ref+0x1>
    1794:	80 93 92 00 	sts	0x0092, r24	; 0x800092 <Slider1Ref>
	Slider2Ref = TouchRead(SLIDER2PIN, 50);
    1798:	62 e3       	ldi	r22, 0x32	; 50
    179a:	70 e0       	ldi	r23, 0x00	; 0
    179c:	85 e0       	ldi	r24, 0x05	; 5
    179e:	90 e0       	ldi	r25, 0x00	; 0
    17a0:	f0 dd       	rcall	.-1056   	; 0x1382 <TouchRead>
    17a2:	90 93 8f 00 	sts	0x008F, r25	; 0x80008f <Slider2Ref+0x1>
    17a6:	80 93 8e 00 	sts	0x008E, r24	; 0x80008e <Slider2Ref>
	Slider3Ref = TouchRead(SLIDER3PIN, 50);
    17aa:	62 e3       	ldi	r22, 0x32	; 50
    17ac:	70 e0       	ldi	r23, 0x00	; 0
    17ae:	86 e0       	ldi	r24, 0x06	; 6
    17b0:	90 e0       	ldi	r25, 0x00	; 0
    17b2:	e7 dd       	rcall	.-1074   	; 0x1382 <TouchRead>
    17b4:	90 93 8b 00 	sts	0x008B, r25	; 0x80008b <Slider3Ref+0x1>
    17b8:	80 93 8a 00 	sts	0x008A, r24	; 0x80008a <Slider3Ref>

	//Get last Mode from EEPROM
	mode = eeprom_read_byte((uint8_t)0);
    17bc:	80 e0       	ldi	r24, 0x00	; 0
    17be:	90 e0       	ldi	r25, 0x00	; 0
    17c0:	99 d3       	rcall	.+1842   	; 0x1ef4 <eeprom_read_byte>
    17c2:	80 93 63 00 	sts	0x0063, r24	; 0x800063 <mode>
	if((mode > 3) | (mode < 1)){
    17c6:	20 91 63 00 	lds	r18, 0x0063	; 0x800063 <mode>
    17ca:	90 91 63 00 	lds	r25, 0x0063	; 0x800063 <mode>
    17ce:	81 e0       	ldi	r24, 0x01	; 1
    17d0:	24 30       	cpi	r18, 0x04	; 4
    17d2:	08 f4       	brcc	.+2      	; 0x17d6 <main+0xa2>
    17d4:	80 e0       	ldi	r24, 0x00	; 0
    17d6:	81 11       	cpse	r24, r1
    17d8:	05 c0       	rjmp	.+10     	; 0x17e4 <main+0xb0>
    17da:	81 e0       	ldi	r24, 0x01	; 1
    17dc:	91 11       	cpse	r25, r1
    17de:	80 e0       	ldi	r24, 0x00	; 0
    17e0:	88 23       	and	r24, r24
    17e2:	19 f0       	breq	.+6      	; 0x17ea <main+0xb6>
		mode = 1;
    17e4:	81 e0       	ldi	r24, 0x01	; 1
    17e6:	80 93 63 00 	sts	0x0063, r24	; 0x800063 <mode>
				break;
			}
			if(ButtonPressedTime == 0) ButtonPressedTime = millis;
			if(millis - ButtonPressedTime > ButtonPressedDelay){
				mode += 1;
				if(mode > 3) mode=1;
    17ea:	c1 e0       	ldi	r28, 0x01	; 1
				case 2:
				#ifdef goon
				GoonMorse = 1;
				MorseDelay = 50;
				#else
				pulseDelay = 3;
    17ec:	0f 2e       	mov	r0, r31
    17ee:	f3 e0       	ldi	r31, 0x03	; 3
    17f0:	8f 2e       	mov	r8, r31
    17f2:	f0 2d       	mov	r31, r0
				pulse = 1;
    17f4:	01 e0       	ldi	r16, 0x01	; 1
    17f6:	10 e0       	ldi	r17, 0x00	; 0
				#endif
				buzzWidth = 10;
    17f8:	0f 2e       	mov	r0, r31
    17fa:	fa e0       	ldi	r31, 0x0A	; 10
    17fc:	df 2e       	mov	r13, r31
    17fe:	f0 2d       	mov	r31, r0
				TCCR0B |= 1<<CS00 | 1<<CS01;
				BlingTimeDelay = 50;
    1800:	0f 2e       	mov	r0, r31
    1802:	f2 e3       	ldi	r31, 0x32	; 50
    1804:	9f 2e       	mov	r9, r31
    1806:	f0 2d       	mov	r31, r0
		if(Slider1Touched == 1){
			LED3PORT |= 1<<LED3PIN;
			switch(mode)
			{
				case 1:
				pulseDelay = 7;
    1808:	d7 e0       	ldi	r29, 0x07	; 7
				case 2:
				#ifdef goon
				GoonMorse = 1;
				MorseDelay = 100;
				#else
				pulseDelay = 5;
    180a:	0f 2e       	mov	r0, r31
    180c:	f5 e0       	ldi	r31, 0x05	; 5
    180e:	af 2e       	mov	r10, r31
    1810:	f0 2d       	mov	r31, r0
				pulse = 1;
				#endif
				buzzWidth = 20;
    1812:	0f 2e       	mov	r0, r31
    1814:	f4 e1       	ldi	r31, 0x14	; 20
    1816:	ef 2e       	mov	r14, r31
    1818:	f0 2d       	mov	r31, r0
				TCCR0B |= 1<<CS00 | 1<<CS01;
				BlingTimeDelay = 100;
    181a:	0f 2e       	mov	r0, r31
    181c:	f4 e6       	ldi	r31, 0x64	; 100
    181e:	bf 2e       	mov	r11, r31
    1820:	f0 2d       	mov	r31, r0
				MorseDelay = 200;
				#else 
				pulseDelay = 7;
				pulse = 1;
				#endif
				buzzWidth = 40;
    1822:	0f 2e       	mov	r0, r31
    1824:	f8 e2       	ldi	r31, 0x28	; 40
    1826:	ff 2e       	mov	r15, r31
    1828:	f0 2d       	mov	r31, r0
				TCCR0B |= 1<<CS00 | 1<<CS01;
				BlingTimeDelay = 200;
    182a:	0f 2e       	mov	r0, r31
    182c:	f8 ec       	ldi	r31, 0xC8	; 200
    182e:	cf 2e       	mov	r12, r31
    1830:	f0 2d       	mov	r31, r0
	
	
	//Main Loop
    while (1) 
    {
		if(millis > nextButtonReadTime){
    1832:	40 91 a1 00 	lds	r20, 0x00A1	; 0x8000a1 <millis>
    1836:	50 91 a2 00 	lds	r21, 0x00A2	; 0x8000a2 <millis+0x1>
    183a:	60 91 a3 00 	lds	r22, 0x00A3	; 0x8000a3 <millis+0x2>
    183e:	70 91 a4 00 	lds	r23, 0x00A4	; 0x8000a4 <millis+0x3>
    1842:	80 91 78 00 	lds	r24, 0x0078	; 0x800078 <nextButtonReadTime>
    1846:	90 91 79 00 	lds	r25, 0x0079	; 0x800079 <nextButtonReadTime+0x1>
    184a:	a0 91 7a 00 	lds	r26, 0x007A	; 0x80007a <nextButtonReadTime+0x2>
    184e:	b0 91 7b 00 	lds	r27, 0x007B	; 0x80007b <nextButtonReadTime+0x3>
    1852:	84 17       	cp	r24, r20
    1854:	95 07       	cpc	r25, r21
    1856:	a6 07       	cpc	r26, r22
    1858:	b7 07       	cpc	r27, r23
    185a:	08 f0       	brcs	.+2      	; 0x185e <main+0x12a>
    185c:	b3 c1       	rjmp	.+870    	; 0x1bc4 <main+0x490>
			nextButtonReadTime = millis + buttonReadDelay;
    185e:	80 91 a1 00 	lds	r24, 0x00A1	; 0x8000a1 <millis>
    1862:	90 91 a2 00 	lds	r25, 0x00A2	; 0x8000a2 <millis+0x1>
    1866:	a0 91 a3 00 	lds	r26, 0x00A3	; 0x8000a3 <millis+0x2>
    186a:	b0 91 a4 00 	lds	r27, 0x00A4	; 0x8000a4 <millis+0x3>
    186e:	20 91 64 00 	lds	r18, 0x0064	; 0x800064 <buttonReadDelay>
    1872:	82 0f       	add	r24, r18
    1874:	91 1d       	adc	r25, r1
    1876:	a1 1d       	adc	r26, r1
    1878:	b1 1d       	adc	r27, r1
    187a:	80 93 78 00 	sts	0x0078, r24	; 0x800078 <nextButtonReadTime>
    187e:	90 93 79 00 	sts	0x0079, r25	; 0x800079 <nextButtonReadTime+0x1>
    1882:	a0 93 7a 00 	sts	0x007A, r26	; 0x80007a <nextButtonReadTime+0x2>
    1886:	b0 93 7b 00 	sts	0x007B, r27	; 0x80007b <nextButtonReadTime+0x3>
			UpdateButtons();
    188a:	c3 dd       	rcall	.-1146   	; 0x1412 <UpdateButtons>

		if(Slider3Touched == 1){
    188c:	80 91 85 00 	lds	r24, 0x0085	; 0x800085 <Slider3Touched>
    1890:	81 30       	cpi	r24, 0x01	; 1
    1892:	29 f5       	brne	.+74     	; 0x18de <main+0x1aa>
			LED1PORT |= 1<<LED1PIN;
    1894:	d9 9a       	sbi	0x1b, 1	; 27
			switch(mode)
    1896:	80 91 63 00 	lds	r24, 0x0063	; 0x800063 <mode>
    189a:	82 30       	cpi	r24, 0x02	; 2
    189c:	81 f0       	breq	.+32     	; 0x18be <main+0x18a>
    189e:	83 30       	cpi	r24, 0x03	; 3
    18a0:	e1 f0       	breq	.+56     	; 0x18da <main+0x1a6>
    18a2:	81 30       	cpi	r24, 0x01	; 1
    18a4:	09 f5       	brne	.+66     	; 0x18e8 <main+0x1b4>
			{
				case 1: //Screwdriver
				pulseDelay = 7;
    18a6:	d0 93 66 00 	sts	0x0066, r29	; 0x800066 <pulseDelay>
				pulse = 1;
    18aa:	10 93 7d 00 	sts	0x007D, r17	; 0x80007d <pulse+0x1>
    18ae:	00 93 7c 00 	sts	0x007C, r16	; 0x80007c <pulse>
				buzzWidth = 40;
    18b2:	f0 92 77 00 	sts	0x0077, r15	; 0x800077 <buzzWidth>
				TCCR0B |= 1<<CS00 | 1<<CS01;
    18b6:	83 b7       	in	r24, 0x33	; 51
    18b8:	83 60       	ori	r24, 0x03	; 3
    18ba:	83 bf       	out	0x33, r24	; 51
				break;
    18bc:	15 c0       	rjmp	.+42     	; 0x18e8 <main+0x1b4>
				case 2: //Bling
				#ifdef goon
				GoonMorse = 1;
				MorseDelay = 200;
				#else 
				pulseDelay = 7;
    18be:	d0 93 66 00 	sts	0x0066, r29	; 0x800066 <pulseDelay>
				pulse = 1;
    18c2:	10 93 7d 00 	sts	0x007D, r17	; 0x80007d <pulse+0x1>
    18c6:	00 93 7c 00 	sts	0x007C, r16	; 0x80007c <pulse>
				#endif
				buzzWidth = 40;
    18ca:	f0 92 77 00 	sts	0x0077, r15	; 0x800077 <buzzWidth>
				TCCR0B |= 1<<CS00 | 1<<CS01;
    18ce:	83 b7       	in	r24, 0x33	; 51
    18d0:	83 60       	ori	r24, 0x03	; 3
    18d2:	83 bf       	out	0x33, r24	; 51
				BlingTimeDelay = 200;
    18d4:	c0 92 60 00 	sts	0x0060, r12	; 0x800060 <BlingTimeDelay>
				break;
    18d8:	07 c0       	rjmp	.+14     	; 0x18e8 <main+0x1b4>
				case 3: //TVBGone
				TVBGone();
    18da:	46 de       	rcall	.-884    	; 0x1568 <TVBGone>
				break;
    18dc:	05 c0       	rjmp	.+10     	; 0x18e8 <main+0x1b4>
			}
			
			} else {
			if(mode != 2) LED1PORT &= ~(1<<LED1PIN);
    18de:	80 91 63 00 	lds	r24, 0x0063	; 0x800063 <mode>
    18e2:	82 30       	cpi	r24, 0x02	; 2
    18e4:	09 f0       	breq	.+2      	; 0x18e8 <main+0x1b4>
    18e6:	d9 98       	cbi	0x1b, 1	; 27
		}

		if(Slider2Touched == 1){
    18e8:	80 91 86 00 	lds	r24, 0x0086	; 0x800086 <Slider2Touched>
    18ec:	81 30       	cpi	r24, 0x01	; 1
    18ee:	29 f5       	brne	.+74     	; 0x193a <main+0x206>
			LED2PORT |= 1<<LED2PIN;
    18f0:	da 9a       	sbi	0x1b, 2	; 27
			switch(mode)
    18f2:	80 91 63 00 	lds	r24, 0x0063	; 0x800063 <mode>
    18f6:	82 30       	cpi	r24, 0x02	; 2
    18f8:	81 f0       	breq	.+32     	; 0x191a <main+0x1e6>
    18fa:	83 30       	cpi	r24, 0x03	; 3
    18fc:	e1 f0       	breq	.+56     	; 0x1936 <main+0x202>
    18fe:	81 30       	cpi	r24, 0x01	; 1
    1900:	09 f5       	brne	.+66     	; 0x1944 <main+0x210>
			{
				case 1:
				pulseDelay = 7;
    1902:	d0 93 66 00 	sts	0x0066, r29	; 0x800066 <pulseDelay>
				pulse = 1;
    1906:	10 93 7d 00 	sts	0x007D, r17	; 0x80007d <pulse+0x1>
    190a:	00 93 7c 00 	sts	0x007C, r16	; 0x80007c <pulse>
				buzzWidth = 20;
    190e:	e0 92 77 00 	sts	0x0077, r14	; 0x800077 <buzzWidth>
				TCCR0B |= 1<<CS00 | 1<<CS01;
    1912:	83 b7       	in	r24, 0x33	; 51
    1914:	83 60       	ori	r24, 0x03	; 3
    1916:	83 bf       	out	0x33, r24	; 51
				break;
    1918:	15 c0       	rjmp	.+42     	; 0x1944 <main+0x210>
				case 2:
				#ifdef goon
				GoonMorse = 1;
				MorseDelay = 100;
				#else
				pulseDelay = 5;
    191a:	a0 92 66 00 	sts	0x0066, r10	; 0x800066 <pulseDelay>
				pulse = 1;
    191e:	10 93 7d 00 	sts	0x007D, r17	; 0x80007d <pulse+0x1>
    1922:	00 93 7c 00 	sts	0x007C, r16	; 0x80007c <pulse>
				#endif
				buzzWidth = 20;
    1926:	e0 92 77 00 	sts	0x0077, r14	; 0x800077 <buzzWidth>
				TCCR0B |= 1<<CS00 | 1<<CS01;
    192a:	83 b7       	in	r24, 0x33	; 51
    192c:	83 60       	ori	r24, 0x03	; 3
    192e:	83 bf       	out	0x33, r24	; 51
				BlingTimeDelay = 100;
    1930:	b0 92 60 00 	sts	0x0060, r11	; 0x800060 <BlingTimeDelay>
				break;
    1934:	07 c0       	rjmp	.+14     	; 0x1944 <main+0x210>
				case 3:
				TVBGone();
    1936:	18 de       	rcall	.-976    	; 0x1568 <TVBGone>
				break;
    1938:	05 c0       	rjmp	.+10     	; 0x1944 <main+0x210>
			}
			} else {
			if(mode != 2) LED2PORT &= ~(1<<LED2PIN);
    193a:	80 91 63 00 	lds	r24, 0x0063	; 0x800063 <mode>
    193e:	82 30       	cpi	r24, 0x02	; 2
    1940:	09 f0       	breq	.+2      	; 0x1944 <main+0x210>
    1942:	da 98       	cbi	0x1b, 2	; 27
		}

		if(Slider1Touched == 1){
    1944:	80 91 87 00 	lds	r24, 0x0087	; 0x800087 <Slider1Touched>
    1948:	81 30       	cpi	r24, 0x01	; 1
    194a:	29 f5       	brne	.+74     	; 0x1996 <main+0x262>
			LED3PORT |= 1<<LED3PIN;
    194c:	db 9a       	sbi	0x1b, 3	; 27
			switch(mode)
    194e:	80 91 63 00 	lds	r24, 0x0063	; 0x800063 <mode>
    1952:	82 30       	cpi	r24, 0x02	; 2
    1954:	81 f0       	breq	.+32     	; 0x1976 <main+0x242>
    1956:	83 30       	cpi	r24, 0x03	; 3
    1958:	e1 f0       	breq	.+56     	; 0x1992 <main+0x25e>
    195a:	81 30       	cpi	r24, 0x01	; 1
    195c:	09 f5       	brne	.+66     	; 0x19a0 <main+0x26c>
			{
				case 1:
				pulseDelay = 7;
    195e:	d0 93 66 00 	sts	0x0066, r29	; 0x800066 <pulseDelay>
				pulse = 1;
    1962:	10 93 7d 00 	sts	0x007D, r17	; 0x80007d <pulse+0x1>
    1966:	00 93 7c 00 	sts	0x007C, r16	; 0x80007c <pulse>
				buzzWidth = 10;
    196a:	d0 92 77 00 	sts	0x0077, r13	; 0x800077 <buzzWidth>
				TCCR0B |= 1<<CS00 | 1<<CS01;
    196e:	83 b7       	in	r24, 0x33	; 51
    1970:	83 60       	ori	r24, 0x03	; 3
    1972:	83 bf       	out	0x33, r24	; 51
				break;
    1974:	15 c0       	rjmp	.+42     	; 0x19a0 <main+0x26c>
				case 2:
				#ifdef goon
				GoonMorse = 1;
				MorseDelay = 50;
				#else
				pulseDelay = 3;
    1976:	80 92 66 00 	sts	0x0066, r8	; 0x800066 <pulseDelay>
				pulse = 1;
    197a:	10 93 7d 00 	sts	0x007D, r17	; 0x80007d <pulse+0x1>
    197e:	00 93 7c 00 	sts	0x007C, r16	; 0x80007c <pulse>
				#endif
				buzzWidth = 10;
    1982:	d0 92 77 00 	sts	0x0077, r13	; 0x800077 <buzzWidth>
				TCCR0B |= 1<<CS00 | 1<<CS01;
    1986:	83 b7       	in	r24, 0x33	; 51
    1988:	83 60       	ori	r24, 0x03	; 3
    198a:	83 bf       	out	0x33, r24	; 51
				BlingTimeDelay = 50;
    198c:	90 92 60 00 	sts	0x0060, r9	; 0x800060 <BlingTimeDelay>
				break;
    1990:	07 c0       	rjmp	.+14     	; 0x19a0 <main+0x26c>
				case 3:
				TVBGone();
    1992:	ea dd       	rcall	.-1068   	; 0x1568 <TVBGone>
				break;
    1994:	05 c0       	rjmp	.+10     	; 0x19a0 <main+0x26c>
			}
			} else {
				if(mode != 2) LED3PORT &= ~(1<<LED3PIN);
    1996:	80 91 63 00 	lds	r24, 0x0063	; 0x800063 <mode>
    199a:	82 30       	cpi	r24, 0x02	; 2
    199c:	09 f0       	breq	.+2      	; 0x19a0 <main+0x26c>
    199e:	db 98       	cbi	0x1b, 3	; 27
		}


		if(SliderReleased == 1){
    19a0:	80 91 88 00 	lds	r24, 0x0088	; 0x800088 <SliderReleased>
    19a4:	81 30       	cpi	r24, 0x01	; 1
    19a6:	39 f4       	brne	.+14     	; 0x19b6 <main+0x282>
			SliderReleased = 0;
    19a8:	10 92 88 00 	sts	0x0088, r1	; 0x800088 <SliderReleased>
			pulse = 0;
    19ac:	10 92 7d 00 	sts	0x007D, r1	; 0x80007d <pulse+0x1>
    19b0:	10 92 7c 00 	sts	0x007C, r1	; 0x80007c <pulse>
			TCCR0B = 0;
    19b4:	13 be       	out	0x33, r1	; 51
			MorseCounter = 0;
			#endif
		}


		if(ButtonTouched == 1){
    19b6:	80 91 84 00 	lds	r24, 0x0084	; 0x800084 <ButtonTouched>
    19ba:	81 30       	cpi	r24, 0x01	; 1
    19bc:	09 f0       	breq	.+2      	; 0x19c0 <main+0x28c>
    19be:	ea c0       	rjmp	.+468    	; 0x1b94 <main+0x460>
			switch(mode)
    19c0:	80 91 63 00 	lds	r24, 0x0063	; 0x800063 <mode>
    19c4:	82 30       	cpi	r24, 0x02	; 2
    19c6:	31 f0       	breq	.+12     	; 0x19d4 <main+0x2a0>
    19c8:	83 30       	cpi	r24, 0x03	; 3
    19ca:	e1 f0       	breq	.+56     	; 0x1a04 <main+0x2d0>
    19cc:	81 30       	cpi	r24, 0x01	; 1
    19ce:	d9 f4       	brne	.+54     	; 0x1a06 <main+0x2d2>
			{
				case 1:
				LED1PORT |= 1<<LED1PIN;
    19d0:	d9 9a       	sbi	0x1b, 1	; 27
				break;
    19d2:	19 c0       	rjmp	.+50     	; 0x1a06 <main+0x2d2>
				case 2:
				LED2PORT |= 1<<LED2PIN;
    19d4:	da 9a       	sbi	0x1b, 2	; 27
				LED3PORT &= ~(1<<LED3PIN);
    19d6:	db 98       	cbi	0x1b, 3	; 27
				LED1PORT &= ~(1<<LED1PIN);
    19d8:	d9 98       	cbi	0x1b, 1	; 27
				BlingTimeCounter += 200;
    19da:	80 91 6b 00 	lds	r24, 0x006B	; 0x80006b <BlingTimeCounter>
    19de:	90 91 6c 00 	lds	r25, 0x006C	; 0x80006c <BlingTimeCounter+0x1>
    19e2:	a0 91 6d 00 	lds	r26, 0x006D	; 0x80006d <BlingTimeCounter+0x2>
    19e6:	b0 91 6e 00 	lds	r27, 0x006E	; 0x80006e <BlingTimeCounter+0x3>
    19ea:	88 53       	subi	r24, 0x38	; 56
    19ec:	9f 4f       	sbci	r25, 0xFF	; 255
    19ee:	af 4f       	sbci	r26, 0xFF	; 255
    19f0:	bf 4f       	sbci	r27, 0xFF	; 255
    19f2:	80 93 6b 00 	sts	0x006B, r24	; 0x80006b <BlingTimeCounter>
    19f6:	90 93 6c 00 	sts	0x006C, r25	; 0x80006c <BlingTimeCounter+0x1>
    19fa:	a0 93 6d 00 	sts	0x006D, r26	; 0x80006d <BlingTimeCounter+0x2>
    19fe:	b0 93 6e 00 	sts	0x006E, r27	; 0x80006e <BlingTimeCounter+0x3>
				break;
    1a02:	01 c0       	rjmp	.+2      	; 0x1a06 <main+0x2d2>
				case 3:
				LED3PORT |= 1<<LED3PIN;
    1a04:	db 9a       	sbi	0x1b, 3	; 27
				break;
			}
			if(ButtonPressedTime == 0) ButtonPressedTime = millis;
    1a06:	80 91 a6 00 	lds	r24, 0x00A6	; 0x8000a6 <ButtonPressedTime>
    1a0a:	90 91 a7 00 	lds	r25, 0x00A7	; 0x8000a7 <ButtonPressedTime+0x1>
    1a0e:	a0 91 a8 00 	lds	r26, 0x00A8	; 0x8000a8 <ButtonPressedTime+0x2>
    1a12:	b0 91 a9 00 	lds	r27, 0x00A9	; 0x8000a9 <ButtonPressedTime+0x3>
    1a16:	89 2b       	or	r24, r25
    1a18:	8a 2b       	or	r24, r26
    1a1a:	8b 2b       	or	r24, r27
    1a1c:	81 f4       	brne	.+32     	; 0x1a3e <main+0x30a>
    1a1e:	80 91 a1 00 	lds	r24, 0x00A1	; 0x8000a1 <millis>
    1a22:	90 91 a2 00 	lds	r25, 0x00A2	; 0x8000a2 <millis+0x1>
    1a26:	a0 91 a3 00 	lds	r26, 0x00A3	; 0x8000a3 <millis+0x2>
    1a2a:	b0 91 a4 00 	lds	r27, 0x00A4	; 0x8000a4 <millis+0x3>
    1a2e:	80 93 a6 00 	sts	0x00A6, r24	; 0x8000a6 <ButtonPressedTime>
    1a32:	90 93 a7 00 	sts	0x00A7, r25	; 0x8000a7 <ButtonPressedTime+0x1>
    1a36:	a0 93 a8 00 	sts	0x00A8, r26	; 0x8000a8 <ButtonPressedTime+0x2>
    1a3a:	b0 93 a9 00 	sts	0x00A9, r27	; 0x8000a9 <ButtonPressedTime+0x3>
			if(millis - ButtonPressedTime > ButtonPressedDelay){
    1a3e:	40 91 a1 00 	lds	r20, 0x00A1	; 0x8000a1 <millis>
    1a42:	50 91 a2 00 	lds	r21, 0x00A2	; 0x8000a2 <millis+0x1>
    1a46:	60 91 a3 00 	lds	r22, 0x00A3	; 0x8000a3 <millis+0x2>
    1a4a:	70 91 a4 00 	lds	r23, 0x00A4	; 0x8000a4 <millis+0x3>
    1a4e:	80 91 a6 00 	lds	r24, 0x00A6	; 0x8000a6 <ButtonPressedTime>
    1a52:	90 91 a7 00 	lds	r25, 0x00A7	; 0x8000a7 <ButtonPressedTime+0x1>
    1a56:	a0 91 a8 00 	lds	r26, 0x00A8	; 0x8000a8 <ButtonPressedTime+0x2>
    1a5a:	b0 91 a9 00 	lds	r27, 0x00A9	; 0x8000a9 <ButtonPressedTime+0x3>
    1a5e:	48 1b       	sub	r20, r24
    1a60:	59 0b       	sbc	r21, r25
    1a62:	6a 0b       	sbc	r22, r26
    1a64:	7b 0b       	sbc	r23, r27
    1a66:	80 91 61 00 	lds	r24, 0x0061	; 0x800061 <ButtonPressedDelay>
    1a6a:	90 91 62 00 	lds	r25, 0x0062	; 0x800062 <ButtonPressedDelay+0x1>
    1a6e:	09 2e       	mov	r0, r25
    1a70:	00 0c       	add	r0, r0
    1a72:	aa 0b       	sbc	r26, r26
    1a74:	bb 0b       	sbc	r27, r27
    1a76:	84 17       	cp	r24, r20
    1a78:	95 07       	cpc	r25, r21
    1a7a:	a6 07       	cpc	r26, r22
    1a7c:	b7 07       	cpc	r27, r23
    1a7e:	08 f0       	brcs	.+2      	; 0x1a82 <main+0x34e>
    1a80:	a1 c0       	rjmp	.+322    	; 0x1bc4 <main+0x490>
				mode += 1;
    1a82:	80 91 63 00 	lds	r24, 0x0063	; 0x800063 <mode>
    1a86:	8f 5f       	subi	r24, 0xFF	; 255
    1a88:	80 93 63 00 	sts	0x0063, r24	; 0x800063 <mode>
				if(mode > 3) mode=1;
    1a8c:	80 91 63 00 	lds	r24, 0x0063	; 0x800063 <mode>
    1a90:	84 30       	cpi	r24, 0x04	; 4
    1a92:	10 f0       	brcs	.+4      	; 0x1a98 <main+0x364>
    1a94:	c0 93 63 00 	sts	0x0063, r28	; 0x800063 <mode>
				//Write mode to EEPROM
				eeprom_update_byte((uint8_t*)0, mode);
    1a98:	60 91 63 00 	lds	r22, 0x0063	; 0x800063 <mode>
    1a9c:	80 e0       	ldi	r24, 0x00	; 0
    1a9e:	90 e0       	ldi	r25, 0x00	; 0
    1aa0:	31 d2       	rcall	.+1122   	; 0x1f04 <eeprom_update_byte>
				LED1PORT &= ~(1<<LED1PIN);
    1aa2:	d9 98       	cbi	0x1b, 1	; 27
				LED2PORT &= ~(1<<LED2PIN);
    1aa4:	da 98       	cbi	0x1b, 2	; 27
				LED3PORT &= ~(1<<LED3PIN);
    1aa6:	db 98       	cbi	0x1b, 3	; 27
				switch(mode)
    1aa8:	80 91 63 00 	lds	r24, 0x0063	; 0x800063 <mode>
    1aac:	82 30       	cpi	r24, 0x02	; 2
    1aae:	51 f1       	breq	.+84     	; 0x1b04 <main+0x3d0>
    1ab0:	83 30       	cpi	r24, 0x03	; 3
    1ab2:	09 f4       	brne	.+2      	; 0x1ab6 <main+0x382>
    1ab4:	4b c0       	rjmp	.+150    	; 0x1b4c <main+0x418>
    1ab6:	81 30       	cpi	r24, 0x01	; 1
    1ab8:	09 f0       	breq	.+2      	; 0x1abc <main+0x388>
    1aba:	84 c0       	rjmp	.+264    	; 0x1bc4 <main+0x490>
					{
						case 1:
						LED1PORT |= 1<<LED1PIN;
    1abc:	d9 9a       	sbi	0x1b, 1	; 27
						ledDelay = millis + 500;
    1abe:	40 91 a1 00 	lds	r20, 0x00A1	; 0x8000a1 <millis>
    1ac2:	50 91 a2 00 	lds	r21, 0x00A2	; 0x8000a2 <millis+0x1>
    1ac6:	60 91 a3 00 	lds	r22, 0x00A3	; 0x8000a3 <millis+0x2>
    1aca:	70 91 a4 00 	lds	r23, 0x00A4	; 0x8000a4 <millis+0x3>
    1ace:	4c 50       	subi	r20, 0x0C	; 12
    1ad0:	5e 4f       	sbci	r21, 0xFE	; 254
    1ad2:	6f 4f       	sbci	r22, 0xFF	; 255
    1ad4:	7f 4f       	sbci	r23, 0xFF	; 255
    1ad6:	40 93 70 00 	sts	0x0070, r20	; 0x800070 <ledDelay>
    1ada:	50 93 71 00 	sts	0x0071, r21	; 0x800071 <ledDelay+0x1>
    1ade:	60 93 72 00 	sts	0x0072, r22	; 0x800072 <ledDelay+0x2>
    1ae2:	70 93 73 00 	sts	0x0073, r23	; 0x800073 <ledDelay+0x3>
						while(ledDelay > millis){};
    1ae6:	80 91 a1 00 	lds	r24, 0x00A1	; 0x8000a1 <millis>
    1aea:	90 91 a2 00 	lds	r25, 0x00A2	; 0x8000a2 <millis+0x1>
    1aee:	a0 91 a3 00 	lds	r26, 0x00A3	; 0x8000a3 <millis+0x2>
    1af2:	b0 91 a4 00 	lds	r27, 0x00A4	; 0x8000a4 <millis+0x3>
    1af6:	84 17       	cp	r24, r20
    1af8:	95 07       	cpc	r25, r21
    1afa:	a6 07       	cpc	r26, r22
    1afc:	b7 07       	cpc	r27, r23
    1afe:	98 f3       	brcs	.-26     	; 0x1ae6 <main+0x3b2>
						LED1PORT &= ~(1<<LED1PIN);
    1b00:	d9 98       	cbi	0x1b, 1	; 27
						break;
    1b02:	60 c0       	rjmp	.+192    	; 0x1bc4 <main+0x490>
						case 2:
						LED2PORT |= 1<<LED2PIN;
    1b04:	da 9a       	sbi	0x1b, 2	; 27
						ledDelay = millis + 500;
    1b06:	40 91 a1 00 	lds	r20, 0x00A1	; 0x8000a1 <millis>
    1b0a:	50 91 a2 00 	lds	r21, 0x00A2	; 0x8000a2 <millis+0x1>
    1b0e:	60 91 a3 00 	lds	r22, 0x00A3	; 0x8000a3 <millis+0x2>
    1b12:	70 91 a4 00 	lds	r23, 0x00A4	; 0x8000a4 <millis+0x3>
    1b16:	4c 50       	subi	r20, 0x0C	; 12
    1b18:	5e 4f       	sbci	r21, 0xFE	; 254
    1b1a:	6f 4f       	sbci	r22, 0xFF	; 255
    1b1c:	7f 4f       	sbci	r23, 0xFF	; 255
    1b1e:	40 93 70 00 	sts	0x0070, r20	; 0x800070 <ledDelay>
    1b22:	50 93 71 00 	sts	0x0071, r21	; 0x800071 <ledDelay+0x1>
    1b26:	60 93 72 00 	sts	0x0072, r22	; 0x800072 <ledDelay+0x2>
    1b2a:	70 93 73 00 	sts	0x0073, r23	; 0x800073 <ledDelay+0x3>
						while(ledDelay > millis){};
    1b2e:	80 91 a1 00 	lds	r24, 0x00A1	; 0x8000a1 <millis>
    1b32:	90 91 a2 00 	lds	r25, 0x00A2	; 0x8000a2 <millis+0x1>
    1b36:	a0 91 a3 00 	lds	r26, 0x00A3	; 0x8000a3 <millis+0x2>
    1b3a:	b0 91 a4 00 	lds	r27, 0x00A4	; 0x8000a4 <millis+0x3>
    1b3e:	84 17       	cp	r24, r20
    1b40:	95 07       	cpc	r25, r21
    1b42:	a6 07       	cpc	r26, r22
    1b44:	b7 07       	cpc	r27, r23
    1b46:	98 f3       	brcs	.-26     	; 0x1b2e <main+0x3fa>
						LED2PORT &= ~(1<<LED2PIN);
    1b48:	da 98       	cbi	0x1b, 2	; 27
						break;
    1b4a:	3c c0       	rjmp	.+120    	; 0x1bc4 <main+0x490>
						case 3:
						LED3PORT |= 1<<LED3PIN;
    1b4c:	db 9a       	sbi	0x1b, 3	; 27
						ledDelay = millis + 500;
    1b4e:	40 91 a1 00 	lds	r20, 0x00A1	; 0x8000a1 <millis>
    1b52:	50 91 a2 00 	lds	r21, 0x00A2	; 0x8000a2 <millis+0x1>
    1b56:	60 91 a3 00 	lds	r22, 0x00A3	; 0x8000a3 <millis+0x2>
    1b5a:	70 91 a4 00 	lds	r23, 0x00A4	; 0x8000a4 <millis+0x3>
    1b5e:	4c 50       	subi	r20, 0x0C	; 12
    1b60:	5e 4f       	sbci	r21, 0xFE	; 254
    1b62:	6f 4f       	sbci	r22, 0xFF	; 255
    1b64:	7f 4f       	sbci	r23, 0xFF	; 255
    1b66:	40 93 70 00 	sts	0x0070, r20	; 0x800070 <ledDelay>
    1b6a:	50 93 71 00 	sts	0x0071, r21	; 0x800071 <ledDelay+0x1>
    1b6e:	60 93 72 00 	sts	0x0072, r22	; 0x800072 <ledDelay+0x2>
    1b72:	70 93 73 00 	sts	0x0073, r23	; 0x800073 <ledDelay+0x3>
						while(ledDelay > millis){};
    1b76:	80 91 a1 00 	lds	r24, 0x00A1	; 0x8000a1 <millis>
    1b7a:	90 91 a2 00 	lds	r25, 0x00A2	; 0x8000a2 <millis+0x1>
    1b7e:	a0 91 a3 00 	lds	r26, 0x00A3	; 0x8000a3 <millis+0x2>
    1b82:	b0 91 a4 00 	lds	r27, 0x00A4	; 0x8000a4 <millis+0x3>
    1b86:	84 17       	cp	r24, r20
    1b88:	95 07       	cpc	r25, r21
    1b8a:	a6 07       	cpc	r26, r22
    1b8c:	b7 07       	cpc	r27, r23
    1b8e:	98 f3       	brcs	.-26     	; 0x1b76 <main+0x442>
						LED3PORT &= ~(1<<LED3PIN);
    1b90:	db 98       	cbi	0x1b, 3	; 27
						break;
    1b92:	18 c0       	rjmp	.+48     	; 0x1bc4 <main+0x490>
					}
			
			} 
		} else {
			if(ButtonPressedTime > 0){
    1b94:	80 91 a6 00 	lds	r24, 0x00A6	; 0x8000a6 <ButtonPressedTime>
    1b98:	90 91 a7 00 	lds	r25, 0x00A7	; 0x8000a7 <ButtonPressedTime+0x1>
    1b9c:	a0 91 a8 00 	lds	r26, 0x00A8	; 0x8000a8 <ButtonPressedTime+0x2>
    1ba0:	b0 91 a9 00 	lds	r27, 0x00A9	; 0x8000a9 <ButtonPressedTime+0x3>
    1ba4:	18 16       	cp	r1, r24
    1ba6:	19 06       	cpc	r1, r25
    1ba8:	1a 06       	cpc	r1, r26
    1baa:	1b 06       	cpc	r1, r27
    1bac:	5c f4       	brge	.+22     	; 0x1bc4 <main+0x490>
				ButtonPressedTime = 0;
    1bae:	10 92 a6 00 	sts	0x00A6, r1	; 0x8000a6 <ButtonPressedTime>
    1bb2:	10 92 a7 00 	sts	0x00A7, r1	; 0x8000a7 <ButtonPressedTime+0x1>
    1bb6:	10 92 a8 00 	sts	0x00A8, r1	; 0x8000a8 <ButtonPressedTime+0x2>
    1bba:	10 92 a9 00 	sts	0x00A9, r1	; 0x8000a9 <ButtonPressedTime+0x3>
				LED1PORT &= ~(1<<LED1PIN);
    1bbe:	d9 98       	cbi	0x1b, 1	; 27
				LED2PORT &= ~(1<<LED2PIN);
    1bc0:	da 98       	cbi	0x1b, 2	; 27
				LED3PORT &= ~(1<<LED3PIN);
    1bc2:	db 98       	cbi	0x1b, 3	; 27
			}
		}				
	}
		
		
		if(pulse == 1){
    1bc4:	80 91 7c 00 	lds	r24, 0x007C	; 0x80007c <pulse>
    1bc8:	90 91 7d 00 	lds	r25, 0x007D	; 0x80007d <pulse+0x1>
    1bcc:	01 97       	sbiw	r24, 0x01	; 1
    1bce:	09 f0       	breq	.+2      	; 0x1bd2 <main+0x49e>
    1bd0:	47 c0       	rjmp	.+142    	; 0x1c60 <main+0x52c>
		if(millis > nextTime){
    1bd2:	40 91 a1 00 	lds	r20, 0x00A1	; 0x8000a1 <millis>
    1bd6:	50 91 a2 00 	lds	r21, 0x00A2	; 0x8000a2 <millis+0x1>
    1bda:	60 91 a3 00 	lds	r22, 0x00A3	; 0x8000a3 <millis+0x2>
    1bde:	70 91 a4 00 	lds	r23, 0x00A4	; 0x8000a4 <millis+0x3>
    1be2:	80 91 7f 00 	lds	r24, 0x007F	; 0x80007f <nextTime>
    1be6:	90 91 80 00 	lds	r25, 0x0080	; 0x800080 <nextTime+0x1>
    1bea:	a0 91 81 00 	lds	r26, 0x0081	; 0x800081 <nextTime+0x2>
    1bee:	b0 91 82 00 	lds	r27, 0x0082	; 0x800082 <nextTime+0x3>
    1bf2:	84 17       	cp	r24, r20
    1bf4:	95 07       	cpc	r25, r21
    1bf6:	a6 07       	cpc	r26, r22
    1bf8:	b7 07       	cpc	r27, r23
    1bfa:	c0 f5       	brcc	.+112    	; 0x1c6c <main+0x538>
			nextTime = millis + pulseDelay;
    1bfc:	80 91 a1 00 	lds	r24, 0x00A1	; 0x8000a1 <millis>
    1c00:	90 91 a2 00 	lds	r25, 0x00A2	; 0x8000a2 <millis+0x1>
    1c04:	a0 91 a3 00 	lds	r26, 0x00A3	; 0x8000a3 <millis+0x2>
    1c08:	b0 91 a4 00 	lds	r27, 0x00A4	; 0x8000a4 <millis+0x3>
    1c0c:	20 91 66 00 	lds	r18, 0x0066	; 0x800066 <pulseDelay>
    1c10:	82 0f       	add	r24, r18
    1c12:	91 1d       	adc	r25, r1
    1c14:	a1 1d       	adc	r26, r1
    1c16:	b1 1d       	adc	r27, r1
    1c18:	80 93 7f 00 	sts	0x007F, r24	; 0x80007f <nextTime>
    1c1c:	90 93 80 00 	sts	0x0080, r25	; 0x800080 <nextTime+0x1>
    1c20:	a0 93 81 00 	sts	0x0081, r26	; 0x800081 <nextTime+0x2>
    1c24:	b0 93 82 00 	sts	0x0082, r27	; 0x800082 <nextTime+0x3>
			if(pulseDelayUp == 1){
    1c28:	80 91 65 00 	lds	r24, 0x0065	; 0x800065 <pulseDelayUp>
    1c2c:	81 30       	cpi	r24, 0x01	; 1
    1c2e:	51 f4       	brne	.+20     	; 0x1c44 <main+0x510>
				pulseDelayCounter ++;
    1c30:	80 91 7e 00 	lds	r24, 0x007E	; 0x80007e <pulseDelayCounter>
    1c34:	8f 5f       	subi	r24, 0xFF	; 255
    1c36:	80 93 7e 00 	sts	0x007E, r24	; 0x80007e <pulseDelayCounter>
				if(pulseDelayCounter > 41){
    1c3a:	8a 32       	cpi	r24, 0x2A	; 42
    1c3c:	60 f0       	brcs	.+24     	; 0x1c56 <main+0x522>
					pulseDelayUp = 0;
    1c3e:	10 92 65 00 	sts	0x0065, r1	; 0x800065 <pulseDelayUp>
    1c42:	09 c0       	rjmp	.+18     	; 0x1c56 <main+0x522>
				}
			} else {
				pulseDelayCounter --;
    1c44:	80 91 7e 00 	lds	r24, 0x007E	; 0x80007e <pulseDelayCounter>
    1c48:	81 50       	subi	r24, 0x01	; 1
    1c4a:	80 93 7e 00 	sts	0x007E, r24	; 0x80007e <pulseDelayCounter>
				if(pulseDelayCounter < 1){
    1c4e:	81 11       	cpse	r24, r1
    1c50:	02 c0       	rjmp	.+4      	; 0x1c56 <main+0x522>
					pulseDelayUp = 1;
    1c52:	c0 93 65 00 	sts	0x0065, r28	; 0x800065 <pulseDelayUp>
				}
			}
			pulseWidth = pulseDelayCounter;
    1c56:	80 91 7e 00 	lds	r24, 0x007E	; 0x80007e <pulseDelayCounter>
    1c5a:	80 93 9f 00 	sts	0x009F, r24	; 0x80009f <pulseWidth>
    1c5e:	06 c0       	rjmp	.+12     	; 0x1c6c <main+0x538>
		}
		} else {
			pulseWidth = 0;
    1c60:	10 92 9f 00 	sts	0x009F, r1	; 0x80009f <pulseWidth>
			pulseDelayUp = 1;
    1c64:	c0 93 65 00 	sts	0x0065, r28	; 0x800065 <pulseDelayUp>
			pulseDelayCounter = 0;
    1c68:	10 92 7e 00 	sts	0x007E, r1	; 0x80007e <pulseDelayCounter>
				}
			}
		}
		#endif
		
		if(mode == 2){
    1c6c:	80 91 63 00 	lds	r24, 0x0063	; 0x800063 <mode>
    1c70:	82 30       	cpi	r24, 0x02	; 2
    1c72:	09 f0       	breq	.+2      	; 0x1c76 <main+0x542>
    1c74:	de cd       	rjmp	.-1092   	; 0x1832 <main+0xfe>
			if(millis > BlingTimeCounter){
    1c76:	40 91 a1 00 	lds	r20, 0x00A1	; 0x8000a1 <millis>
    1c7a:	50 91 a2 00 	lds	r21, 0x00A2	; 0x8000a2 <millis+0x1>
    1c7e:	60 91 a3 00 	lds	r22, 0x00A3	; 0x8000a3 <millis+0x2>
    1c82:	70 91 a4 00 	lds	r23, 0x00A4	; 0x8000a4 <millis+0x3>
    1c86:	80 91 6b 00 	lds	r24, 0x006B	; 0x80006b <BlingTimeCounter>
    1c8a:	90 91 6c 00 	lds	r25, 0x006C	; 0x80006c <BlingTimeCounter+0x1>
    1c8e:	a0 91 6d 00 	lds	r26, 0x006D	; 0x80006d <BlingTimeCounter+0x2>
    1c92:	b0 91 6e 00 	lds	r27, 0x006E	; 0x80006e <BlingTimeCounter+0x3>
    1c96:	84 17       	cp	r24, r20
    1c98:	95 07       	cpc	r25, r21
    1c9a:	a6 07       	cpc	r26, r22
    1c9c:	b7 07       	cpc	r27, r23
    1c9e:	08 f0       	brcs	.+2      	; 0x1ca2 <main+0x56e>
    1ca0:	c8 cd       	rjmp	.-1136   	; 0x1832 <main+0xfe>
				BlingTimeCounter = millis + BlingTimeDelay;
    1ca2:	80 91 a1 00 	lds	r24, 0x00A1	; 0x8000a1 <millis>
    1ca6:	90 91 a2 00 	lds	r25, 0x00A2	; 0x8000a2 <millis+0x1>
    1caa:	a0 91 a3 00 	lds	r26, 0x00A3	; 0x8000a3 <millis+0x2>
    1cae:	b0 91 a4 00 	lds	r27, 0x00A4	; 0x8000a4 <millis+0x3>
    1cb2:	20 91 60 00 	lds	r18, 0x0060	; 0x800060 <BlingTimeDelay>
    1cb6:	82 0f       	add	r24, r18
    1cb8:	91 1d       	adc	r25, r1
    1cba:	a1 1d       	adc	r26, r1
    1cbc:	b1 1d       	adc	r27, r1
    1cbe:	80 93 6b 00 	sts	0x006B, r24	; 0x80006b <BlingTimeCounter>
    1cc2:	90 93 6c 00 	sts	0x006C, r25	; 0x80006c <BlingTimeCounter+0x1>
    1cc6:	a0 93 6d 00 	sts	0x006D, r26	; 0x80006d <BlingTimeCounter+0x2>
    1cca:	b0 93 6e 00 	sts	0x006E, r27	; 0x80006e <BlingTimeCounter+0x3>
				BlingModeCounter += 1;
    1cce:	80 91 6f 00 	lds	r24, 0x006F	; 0x80006f <BlingModeCounter>
    1cd2:	8f 5f       	subi	r24, 0xFF	; 255
    1cd4:	80 93 6f 00 	sts	0x006F, r24	; 0x80006f <BlingModeCounter>
				if(BlingModeCounter > 4) BlingModeCounter = 1;
    1cd8:	85 30       	cpi	r24, 0x05	; 5
    1cda:	18 f0       	brcs	.+6      	; 0x1ce2 <main+0x5ae>
    1cdc:	c0 93 6f 00 	sts	0x006F, r28	; 0x80006f <BlingModeCounter>
    1ce0:	0c c0       	rjmp	.+24     	; 0x1cfa <main+0x5c6>
				switch (BlingModeCounter)
    1ce2:	82 30       	cpi	r24, 0x02	; 2
    1ce4:	61 f0       	breq	.+24     	; 0x1cfe <main+0x5ca>
    1ce6:	20 f4       	brcc	.+8      	; 0x1cf0 <main+0x5bc>
    1ce8:	81 30       	cpi	r24, 0x01	; 1
    1cea:	09 f0       	breq	.+2      	; 0x1cee <main+0x5ba>
    1cec:	a2 cd       	rjmp	.-1212   	; 0x1832 <main+0xfe>
    1cee:	05 c0       	rjmp	.+10     	; 0x1cfa <main+0x5c6>
    1cf0:	83 30       	cpi	r24, 0x03	; 3
    1cf2:	41 f0       	breq	.+16     	; 0x1d04 <main+0x5d0>
    1cf4:	84 30       	cpi	r24, 0x04	; 4
    1cf6:	49 f0       	breq	.+18     	; 0x1d0a <main+0x5d6>
    1cf8:	9c cd       	rjmp	.-1224   	; 0x1832 <main+0xfe>
				{
					case 1:
					LED1PORT |= 1<<LED1PIN;
    1cfa:	d9 9a       	sbi	0x1b, 1	; 27
					break;
    1cfc:	9a cd       	rjmp	.-1228   	; 0x1832 <main+0xfe>
					case 2:
					LED2PORT |= 1<<LED2PIN;
    1cfe:	da 9a       	sbi	0x1b, 2	; 27
					LED1PORT &= ~(1<<LED1PIN);
    1d00:	d9 98       	cbi	0x1b, 1	; 27
					break;
    1d02:	97 cd       	rjmp	.-1234   	; 0x1832 <main+0xfe>
					case 3:
					LED3PORT |= 1<<LED3PIN;
    1d04:	db 9a       	sbi	0x1b, 3	; 27
					LED2PORT &= ~(1<<LED2PIN);
    1d06:	da 98       	cbi	0x1b, 2	; 27
					break;
    1d08:	94 cd       	rjmp	.-1240   	; 0x1832 <main+0xfe>
					case 4:
					LED3PORT &= ~(1<<LED3PIN);
    1d0a:	db 98       	cbi	0x1b, 3	; 27
					break;
    1d0c:	92 cd       	rjmp	.-1244   	; 0x1832 <main+0xfe>

00001d0e <__vector_6>:
	 LED3PORT &= ~(1<<LED3PIN);
	 TVContinuous = 0;
	 OCR1A = 104; //Put timer back to normal
}

ISR(TIM1_COMPA_vect) {
    1d0e:	1f 92       	push	r1
    1d10:	0f 92       	push	r0
    1d12:	0f b6       	in	r0, 0x3f	; 63
    1d14:	0f 92       	push	r0
    1d16:	11 24       	eor	r1, r1
    1d18:	2f 93       	push	r18
    1d1a:	8f 93       	push	r24
    1d1c:	9f 93       	push	r25
    1d1e:	af 93       	push	r26
    1d20:	bf 93       	push	r27
	if(mode == 3){
    1d22:	80 91 63 00 	lds	r24, 0x0063	; 0x800063 <mode>
    1d26:	83 30       	cpi	r24, 0x03	; 3
    1d28:	b1 f4       	brne	.+44     	; 0x1d56 <__vector_6+0x48>
	if(IRPulse == 1){
    1d2a:	80 91 9c 00 	lds	r24, 0x009C	; 0x80009c <IRPulse>
    1d2e:	81 30       	cpi	r24, 0x01	; 1
    1d30:	09 f4       	brne	.+2      	; 0x1d34 <__vector_6+0x26>
		PINA = (1<<IRLEDPIN);
    1d32:	89 bb       	out	0x19, r24	; 25
	}
	
	if(IRPulseCounter > 0)	{
    1d34:	80 91 9a 00 	lds	r24, 0x009A	; 0x80009a <IRPulseCounter>
    1d38:	90 91 9b 00 	lds	r25, 0x009B	; 0x80009b <IRPulseCounter+0x1>
    1d3c:	89 2b       	or	r24, r25
    1d3e:	09 f4       	brne	.+2      	; 0x1d42 <__vector_6+0x34>
    1d40:	73 c0       	rjmp	.+230    	; 0x1e28 <__vector_6+0x11a>
		IRPulseCounter --;
    1d42:	80 91 9a 00 	lds	r24, 0x009A	; 0x80009a <IRPulseCounter>
    1d46:	90 91 9b 00 	lds	r25, 0x009B	; 0x80009b <IRPulseCounter+0x1>
    1d4a:	01 97       	sbiw	r24, 0x01	; 1
    1d4c:	90 93 9b 00 	sts	0x009B, r25	; 0x80009b <IRPulseCounter+0x1>
    1d50:	80 93 9a 00 	sts	0x009A, r24	; 0x80009a <IRPulseCounter>
    1d54:	69 c0       	rjmp	.+210    	; 0x1e28 <__vector_6+0x11a>
	}
	} else {

		if(pulseCountUp == 1){
    1d56:	80 91 67 00 	lds	r24, 0x0067	; 0x800067 <pulseCountUp>
    1d5a:	81 30       	cpi	r24, 0x01	; 1
    1d5c:	a9 f4       	brne	.+42     	; 0x1d88 <__vector_6+0x7a>
			pulseCounter ++;
    1d5e:	80 91 9d 00 	lds	r24, 0x009D	; 0x80009d <pulseCounter>
    1d62:	8f 5f       	subi	r24, 0xFF	; 255
    1d64:	80 93 9d 00 	sts	0x009D, r24	; 0x80009d <pulseCounter>
			if(pulseCounter > 15){
    1d68:	80 91 9d 00 	lds	r24, 0x009D	; 0x80009d <pulseCounter>
    1d6c:	80 31       	cpi	r24, 0x10	; 16
    1d6e:	10 f0       	brcs	.+4      	; 0x1d74 <__vector_6+0x66>
				pulseCountUp = 0;
    1d70:	10 92 67 00 	sts	0x0067, r1	; 0x800067 <pulseCountUp>
			}
			if(pulseOn == 1){
    1d74:	80 91 68 00 	lds	r24, 0x0068	; 0x800068 <pulseOn>
    1d78:	81 30       	cpi	r24, 0x01	; 1
    1d7a:	21 f4       	brne	.+8      	; 0x1d84 <__vector_6+0x76>
				IRLEDPORT ^= 1<<IRLEDPIN;
    1d7c:	9b b3       	in	r25, 0x1b	; 27
    1d7e:	89 27       	eor	r24, r25
    1d80:	8b bb       	out	0x1b, r24	; 27
    1d82:	14 c0       	rjmp	.+40     	; 0x1dac <__vector_6+0x9e>
			} else {
			IRLEDPORT &= ~(1<<IRLEDPIN);
    1d84:	d8 98       	cbi	0x1b, 0	; 27
    1d86:	12 c0       	rjmp	.+36     	; 0x1dac <__vector_6+0x9e>
			}
		} else {
			pulseCounter --;
    1d88:	80 91 9d 00 	lds	r24, 0x009D	; 0x80009d <pulseCounter>
    1d8c:	81 50       	subi	r24, 0x01	; 1
    1d8e:	80 93 9d 00 	sts	0x009D, r24	; 0x80009d <pulseCounter>
			if(pulseCounter < 1){
    1d92:	80 91 9d 00 	lds	r24, 0x009D	; 0x80009d <pulseCounter>
    1d96:	81 11       	cpse	r24, r1
    1d98:	08 c0       	rjmp	.+16     	; 0x1daa <__vector_6+0x9c>
				pulseCountUp = 1;
    1d9a:	81 e0       	ldi	r24, 0x01	; 1
    1d9c:	80 93 67 00 	sts	0x0067, r24	; 0x800067 <pulseCountUp>
				pulseWidthCounter ++;
    1da0:	80 91 9e 00 	lds	r24, 0x009E	; 0x80009e <pulseWidthCounter>
    1da4:	8f 5f       	subi	r24, 0xFF	; 255
    1da6:	80 93 9e 00 	sts	0x009E, r24	; 0x80009e <pulseWidthCounter>
			}
			IRLEDPORT &= ~(1<<IRLEDPIN);
    1daa:	d8 98       	cbi	0x1b, 0	; 27
		}
		
		#ifdef goon
		if(GoonMorse == 0){
		#endif
		if(pulseWidthCounter > pulseWidth){
    1dac:	90 91 9e 00 	lds	r25, 0x009E	; 0x80009e <pulseWidthCounter>
    1db0:	80 91 9f 00 	lds	r24, 0x009F	; 0x80009f <pulseWidth>
    1db4:	89 17       	cp	r24, r25
    1db6:	78 f4       	brcc	.+30     	; 0x1dd6 <__vector_6+0xc8>
			pulseOn = 0;
    1db8:	10 92 68 00 	sts	0x0068, r1	; 0x800068 <pulseOn>
			if(pulseWidthCounter > 42){
    1dbc:	80 91 9e 00 	lds	r24, 0x009E	; 0x80009e <pulseWidthCounter>
    1dc0:	8b 32       	cpi	r24, 0x2B	; 43
    1dc2:	48 f0       	brcs	.+18     	; 0x1dd6 <__vector_6+0xc8>
				pulseWidthCounter = 0;
    1dc4:	10 92 9e 00 	sts	0x009E, r1	; 0x80009e <pulseWidthCounter>
				if(pulseWidth > 0){
    1dc8:	80 91 9f 00 	lds	r24, 0x009F	; 0x80009f <pulseWidth>
    1dcc:	88 23       	and	r24, r24
    1dce:	19 f0       	breq	.+6      	; 0x1dd6 <__vector_6+0xc8>
					pulseOn = 1;
    1dd0:	81 e0       	ldi	r24, 0x01	; 1
    1dd2:	80 93 68 00 	sts	0x0068, r24	; 0x800068 <pulseOn>
		}
		#ifdef goon
		}
		#endif
		
		buzzCounter ++;
    1dd6:	80 91 76 00 	lds	r24, 0x0076	; 0x800076 <buzzCounter>
    1dda:	8f 5f       	subi	r24, 0xFF	; 255
    1ddc:	80 93 76 00 	sts	0x0076, r24	; 0x800076 <buzzCounter>
		if(buzzCounter > buzzWidth){
    1de0:	90 91 76 00 	lds	r25, 0x0076	; 0x800076 <buzzCounter>
    1de4:	80 91 77 00 	lds	r24, 0x0077	; 0x800077 <buzzWidth>
    1de8:	89 17       	cp	r24, r25
    1dea:	f0 f4       	brcc	.+60     	; 0x1e28 <__vector_6+0x11a>
			buzzCounter = 0;
    1dec:	10 92 76 00 	sts	0x0076, r1	; 0x800076 <buzzCounter>
			sampleCounter ++;
    1df0:	80 91 74 00 	lds	r24, 0x0074	; 0x800074 <sampleCounter>
    1df4:	90 91 75 00 	lds	r25, 0x0075	; 0x800075 <sampleCounter+0x1>
    1df8:	01 96       	adiw	r24, 0x01	; 1
    1dfa:	90 93 75 00 	sts	0x0075, r25	; 0x800075 <sampleCounter+0x1>
    1dfe:	80 93 74 00 	sts	0x0074, r24	; 0x800074 <sampleCounter>
			if(sampleCounter > 511) sampleCounter = 0;
    1e02:	81 15       	cp	r24, r1
    1e04:	22 e0       	ldi	r18, 0x02	; 2
    1e06:	92 07       	cpc	r25, r18
    1e08:	3c f0       	brlt	.+14     	; 0x1e18 <__vector_6+0x10a>
    1e0a:	10 92 75 00 	sts	0x0075, r1	; 0x800075 <sampleCounter+0x1>
    1e0e:	10 92 74 00 	sts	0x0074, r1	; 0x800074 <sampleCounter>
			if(sampleCounter > 255){
    1e12:	80 e0       	ldi	r24, 0x00	; 0
    1e14:	90 e0       	ldi	r25, 0x00	; 0
    1e16:	07 c0       	rjmp	.+14     	; 0x1e26 <__vector_6+0x118>
    1e18:	8f 3f       	cpi	r24, 0xFF	; 255
    1e1a:	91 05       	cpc	r25, r1
    1e1c:	21 f0       	breq	.+8      	; 0x1e26 <__vector_6+0x118>
    1e1e:	1c f0       	brlt	.+6      	; 0x1e26 <__vector_6+0x118>
				OCR0A = 512-sampleCounter;
    1e20:	81 95       	neg	r24
    1e22:	86 bf       	out	0x36, r24	; 54
    1e24:	01 c0       	rjmp	.+2      	; 0x1e28 <__vector_6+0x11a>
			} else {
				OCR0A = sampleCounter;
    1e26:	86 bf       	out	0x36, r24	; 54
			}
		}
		}
		
		//crude millis implementation. Accurate enough for our application
		millisCounter ++;
    1e28:	80 91 a0 00 	lds	r24, 0x00A0	; 0x8000a0 <millisCounter>
    1e2c:	8f 5f       	subi	r24, 0xFF	; 255
    1e2e:	80 93 a0 00 	sts	0x00A0, r24	; 0x8000a0 <millisCounter>
		if(millisCounter == 75){
    1e32:	80 91 a0 00 	lds	r24, 0x00A0	; 0x8000a0 <millisCounter>
    1e36:	8b 34       	cpi	r24, 0x4B	; 75
    1e38:	a9 f4       	brne	.+42     	; 0x1e64 <__vector_6+0x156>
			millis ++;
    1e3a:	80 91 a1 00 	lds	r24, 0x00A1	; 0x8000a1 <millis>
    1e3e:	90 91 a2 00 	lds	r25, 0x00A2	; 0x8000a2 <millis+0x1>
    1e42:	a0 91 a3 00 	lds	r26, 0x00A3	; 0x8000a3 <millis+0x2>
    1e46:	b0 91 a4 00 	lds	r27, 0x00A4	; 0x8000a4 <millis+0x3>
    1e4a:	01 96       	adiw	r24, 0x01	; 1
    1e4c:	a1 1d       	adc	r26, r1
    1e4e:	b1 1d       	adc	r27, r1
    1e50:	80 93 a1 00 	sts	0x00A1, r24	; 0x8000a1 <millis>
    1e54:	90 93 a2 00 	sts	0x00A2, r25	; 0x8000a2 <millis+0x1>
    1e58:	a0 93 a3 00 	sts	0x00A3, r26	; 0x8000a3 <millis+0x2>
    1e5c:	b0 93 a4 00 	sts	0x00A4, r27	; 0x8000a4 <millis+0x3>
			millisCounter = 0;
    1e60:	10 92 a0 00 	sts	0x00A0, r1	; 0x8000a0 <millisCounter>
		}

}
    1e64:	bf 91       	pop	r27
    1e66:	af 91       	pop	r26
    1e68:	9f 91       	pop	r25
    1e6a:	8f 91       	pop	r24
    1e6c:	2f 91       	pop	r18
    1e6e:	0f 90       	pop	r0
    1e70:	0f be       	out	0x3f, r0	; 63
    1e72:	0f 90       	pop	r0
    1e74:	1f 90       	pop	r1
    1e76:	18 95       	reti

00001e78 <__divmodsi4>:
    1e78:	05 2e       	mov	r0, r21
    1e7a:	97 fb       	bst	r25, 7
    1e7c:	16 f4       	brtc	.+4      	; 0x1e82 <__divmodsi4+0xa>
    1e7e:	00 94       	com	r0
    1e80:	0f d0       	rcall	.+30     	; 0x1ea0 <__negsi2>
    1e82:	57 fd       	sbrc	r21, 7
    1e84:	05 d0       	rcall	.+10     	; 0x1e90 <__divmodsi4_neg2>
    1e86:	14 d0       	rcall	.+40     	; 0x1eb0 <__udivmodsi4>
    1e88:	07 fc       	sbrc	r0, 7
    1e8a:	02 d0       	rcall	.+4      	; 0x1e90 <__divmodsi4_neg2>
    1e8c:	46 f4       	brtc	.+16     	; 0x1e9e <__divmodsi4_exit>
    1e8e:	08 c0       	rjmp	.+16     	; 0x1ea0 <__negsi2>

00001e90 <__divmodsi4_neg2>:
    1e90:	50 95       	com	r21
    1e92:	40 95       	com	r20
    1e94:	30 95       	com	r19
    1e96:	21 95       	neg	r18
    1e98:	3f 4f       	sbci	r19, 0xFF	; 255
    1e9a:	4f 4f       	sbci	r20, 0xFF	; 255
    1e9c:	5f 4f       	sbci	r21, 0xFF	; 255

00001e9e <__divmodsi4_exit>:
    1e9e:	08 95       	ret

00001ea0 <__negsi2>:
    1ea0:	90 95       	com	r25
    1ea2:	80 95       	com	r24
    1ea4:	70 95       	com	r23
    1ea6:	61 95       	neg	r22
    1ea8:	7f 4f       	sbci	r23, 0xFF	; 255
    1eaa:	8f 4f       	sbci	r24, 0xFF	; 255
    1eac:	9f 4f       	sbci	r25, 0xFF	; 255
    1eae:	08 95       	ret

00001eb0 <__udivmodsi4>:
    1eb0:	a1 e2       	ldi	r26, 0x21	; 33
    1eb2:	1a 2e       	mov	r1, r26
    1eb4:	aa 1b       	sub	r26, r26
    1eb6:	bb 1b       	sub	r27, r27
    1eb8:	fd 01       	movw	r30, r26
    1eba:	0d c0       	rjmp	.+26     	; 0x1ed6 <__udivmodsi4_ep>

00001ebc <__udivmodsi4_loop>:
    1ebc:	aa 1f       	adc	r26, r26
    1ebe:	bb 1f       	adc	r27, r27
    1ec0:	ee 1f       	adc	r30, r30
    1ec2:	ff 1f       	adc	r31, r31
    1ec4:	a2 17       	cp	r26, r18
    1ec6:	b3 07       	cpc	r27, r19
    1ec8:	e4 07       	cpc	r30, r20
    1eca:	f5 07       	cpc	r31, r21
    1ecc:	20 f0       	brcs	.+8      	; 0x1ed6 <__udivmodsi4_ep>
    1ece:	a2 1b       	sub	r26, r18
    1ed0:	b3 0b       	sbc	r27, r19
    1ed2:	e4 0b       	sbc	r30, r20
    1ed4:	f5 0b       	sbc	r31, r21

00001ed6 <__udivmodsi4_ep>:
    1ed6:	66 1f       	adc	r22, r22
    1ed8:	77 1f       	adc	r23, r23
    1eda:	88 1f       	adc	r24, r24
    1edc:	99 1f       	adc	r25, r25
    1ede:	1a 94       	dec	r1
    1ee0:	69 f7       	brne	.-38     	; 0x1ebc <__udivmodsi4_loop>
    1ee2:	60 95       	com	r22
    1ee4:	70 95       	com	r23
    1ee6:	80 95       	com	r24
    1ee8:	90 95       	com	r25
    1eea:	9b 01       	movw	r18, r22
    1eec:	ac 01       	movw	r20, r24
    1eee:	bd 01       	movw	r22, r26
    1ef0:	cf 01       	movw	r24, r30
    1ef2:	08 95       	ret

00001ef4 <eeprom_read_byte>:
    1ef4:	e1 99       	sbic	0x1c, 1	; 28
    1ef6:	fe cf       	rjmp	.-4      	; 0x1ef4 <eeprom_read_byte>
    1ef8:	9f bb       	out	0x1f, r25	; 31
    1efa:	8e bb       	out	0x1e, r24	; 30
    1efc:	e0 9a       	sbi	0x1c, 0	; 28
    1efe:	99 27       	eor	r25, r25
    1f00:	8d b3       	in	r24, 0x1d	; 29
    1f02:	08 95       	ret

00001f04 <eeprom_update_byte>:
    1f04:	26 2f       	mov	r18, r22

00001f06 <eeprom_update_r18>:
    1f06:	e1 99       	sbic	0x1c, 1	; 28
    1f08:	fe cf       	rjmp	.-4      	; 0x1f06 <eeprom_update_r18>
    1f0a:	9f bb       	out	0x1f, r25	; 31
    1f0c:	8e bb       	out	0x1e, r24	; 30
    1f0e:	e0 9a       	sbi	0x1c, 0	; 28
    1f10:	01 97       	sbiw	r24, 0x01	; 1
    1f12:	0d b2       	in	r0, 0x1d	; 29
    1f14:	02 16       	cp	r0, r18
    1f16:	39 f0       	breq	.+14     	; 0x1f26 <eeprom_update_r18+0x20>
    1f18:	1c ba       	out	0x1c, r1	; 28
    1f1a:	2d bb       	out	0x1d, r18	; 29
    1f1c:	0f b6       	in	r0, 0x3f	; 63
    1f1e:	f8 94       	cli
    1f20:	e2 9a       	sbi	0x1c, 2	; 28
    1f22:	e1 9a       	sbi	0x1c, 1	; 28
    1f24:	0f be       	out	0x3f, r0	; 63
    1f26:	08 95       	ret

00001f28 <_exit>:
    1f28:	f8 94       	cli

00001f2a <__stop_program>:
    1f2a:	ff cf       	rjmp	.-2      	; 0x1f2a <__stop_program>
